Archive member included to satisfy reference by file (symbol)

c:/program files/microchip/xc32/v4.21/bin/bin/../../lib/gcc/pic32c/8.3.1/../../../../pic32c/lib/thumb/v7e-m+fp/hard\libpic32c.a(data_init_wrapper.o)
                              build/default/production/_ext/1171490990/startup_xc32.o (__pic32c_data_initialization)
c:/program files/microchip/xc32/v4.21/bin/bin/../../lib/gcc/pic32c/8.3.1/../../../../pic32c/lib/thumb/v7e-m+fp/hard\libpic32c.a(data_init_0_1.o)
                              c:/program files/microchip/xc32/v4.21/bin/bin/../../lib/gcc/pic32c/8.3.1/../../../../pic32c/lib/thumb/v7e-m+fp/hard\libpic32c.a(data_init_wrapper.o) (__pic32c_data_initialization_impl)
c:/program files/microchip/xc32/v4.21/bin/bin/../../lib/gcc/pic32c/8.3.1/../../../../pic32c/lib/thumb/v7e-m+fp/hard\libm-emfloat.a(__aeabi_dsub.o)
                              build/default/production/_ext/1360937237/main.o (__aeabi_dsub)
c:/program files/microchip/xc32/v4.21/bin/bin/../../lib/gcc/pic32c/8.3.1/../../../../pic32c/lib/thumb/v7e-m+fp/hard\libm-emfloat.a(__aeabi_dmul.o)
                              build/default/production/_ext/1360937237/main.o (__aeabi_dmul)
c:/program files/microchip/xc32/v4.21/bin/bin/../../lib/gcc/pic32c/8.3.1/../../../../pic32c/lib/thumb/v7e-m+fp/hard\libm-emfloat.a(__aeabi_ddiv.o)
                              build/default/production/_ext/1360937237/main.o (__aeabi_ddiv)
c:/program files/microchip/xc32/v4.21/bin/bin/../../lib/gcc/pic32c/8.3.1/../../../../pic32c/lib/thumb/v7e-m+fp/hard\libm-emfloat.a(__aeabi_f2d.o)
                              build/default/production/_ext/1360937237/main.o (__aeabi_f2d)
c:/program files/microchip/xc32/v4.21/bin/bin/../../lib/gcc/pic32c/8.3.1/../../../../pic32c/lib/thumb/v7e-m+fp/hard\libm-emfloat.a(__aeabi_d2f.o)
                              build/default/production/_ext/1360937237/main.o (__aeabi_d2f)
c:/program files/microchip/xc32/v4.21/bin/bin/../../lib/gcc/pic32c/8.3.1/../../../../pic32c/lib/thumb/v7e-m+fp/hard\libm-emfloat.a(__aeabi_dadd.o)
                              c:/program files/microchip/xc32/v4.21/bin/bin/../../lib/gcc/pic32c/8.3.1/../../../../pic32c/lib/thumb/v7e-m+fp/hard\libm-emfloat.a(__aeabi_dsub.o) (__aeabi_dadd)
c:/program files/microchip/xc32/v4.21/bin/bin/../../lib/gcc/pic32c/8.3.1/../../../../pic32c/lib/thumb/v7e-m+fp/hard\libc-musl.a(__libc_start_main.o)
                              build/default/production/_ext/1171490990/startup_xc32.o (__libc_init_array)
c:/program files/microchip/xc32/v4.21/bin/bin/../../lib/gcc/pic32c/8.3.1/../../../../pic32c/lib/thumb/v7e-m+fp/hard\libc-musl.a(libc.o)
                              c:/program files/microchip/xc32/v4.21/bin/bin/../../lib/gcc/pic32c/8.3.1/../../../../pic32c/lib/thumb/v7e-m+fp/hard\libc-musl.a(__libc_start_main.o) (__progname_full)
c:/program files/microchip/xc32/v4.21/bin/bin/../../lib/gcc/pic32c/8.3.1/../../../../pic32c/lib/thumb/v7e-m+fp/hard\libc-musl.a(__sio_printf_dfoux.o)
                              (_printf_cdfFgGnopuxX)
c:/program files/microchip/xc32/v4.21/bin/bin/../../lib/gcc/pic32c/8.3.1/../../../../pic32c/lib/thumb/v7e-m+fp/hard\libc-musl.a(__fmt_d.o)
                              c:/program files/microchip/xc32/v4.21/bin/bin/../../lib/gcc/pic32c/8.3.1/../../../../pic32c/lib/thumb/v7e-m+fp/hard\libc-musl.a(__sio_printf_dfoux.o) (__fmt_d_needed)
c:/program files/microchip/xc32/v4.21/bin/bin/../../lib/gcc/pic32c/8.3.1/../../../../pic32c/lib/thumb/v7e-m+fp/hard\libc-musl.a(__fmt_fp.o)
                              c:/program files/microchip/xc32/v4.21/bin/bin/../../lib/gcc/pic32c/8.3.1/../../../../pic32c/lib/thumb/v7e-m+fp/hard\libc-musl.a(__sio_printf_dfoux.o) (__fmt_f_needed)
c:/program files/microchip/xc32/v4.21/bin/bin/../../lib/gcc/pic32c/8.3.1/../../../../pic32c/lib/thumb/v7e-m+fp/hard\libc-musl.a(__fmt_o.o)
                              c:/program files/microchip/xc32/v4.21/bin/bin/../../lib/gcc/pic32c/8.3.1/../../../../pic32c/lib/thumb/v7e-m+fp/hard\libc-musl.a(__sio_printf_dfoux.o) (__fmt_o_needed)
c:/program files/microchip/xc32/v4.21/bin/bin/../../lib/gcc/pic32c/8.3.1/../../../../pic32c/lib/thumb/v7e-m+fp/hard\libc-musl.a(__fmt_s.o)
                              c:/program files/microchip/xc32/v4.21/bin/bin/../../lib/gcc/pic32c/8.3.1/../../../../pic32c/lib/thumb/v7e-m+fp/hard\libc-musl.a(__sio_printf_dfoux.o) (__fmt_s_needed)
c:/program files/microchip/xc32/v4.21/bin/bin/../../lib/gcc/pic32c/8.3.1/../../../../pic32c/lib/thumb/v7e-m+fp/hard\libc-musl.a(__fmt_u.o)
                              c:/program files/microchip/xc32/v4.21/bin/bin/../../lib/gcc/pic32c/8.3.1/../../../../pic32c/lib/thumb/v7e-m+fp/hard\libc-musl.a(__fmt_d.o) (__cvt_u)
c:/program files/microchip/xc32/v4.21/bin/bin/../../lib/gcc/pic32c/8.3.1/../../../../pic32c/lib/thumb/v7e-m+fp/hard\libc-musl.a(__fmt_x.o)
                              c:/program files/microchip/xc32/v4.21/bin/bin/../../lib/gcc/pic32c/8.3.1/../../../../pic32c/lib/thumb/v7e-m+fp/hard\libc-musl.a(__sio_printf_dfoux.o) (__fmt_x_needed)
c:/program files/microchip/xc32/v4.21/bin/bin/../../lib/gcc/pic32c/8.3.1/../../../../pic32c/lib/thumb/v7e-m+fp/hard\libc-musl.a(__pop_float.o)
                              c:/program files/microchip/xc32/v4.21/bin/bin/../../lib/gcc/pic32c/8.3.1/../../../../pic32c/lib/thumb/v7e-m+fp/hard\libc-musl.a(__sio_printf_dfoux.o) (__pop_float_needed)
c:/program files/microchip/xc32/v4.21/bin/bin/../../lib/gcc/pic32c/8.3.1/../../../../pic32c/lib/thumb/v7e-m+fp/hard\libc-musl.a(__pop_int.o)
                              c:/program files/microchip/xc32/v4.21/bin/bin/../../lib/gcc/pic32c/8.3.1/../../../../pic32c/lib/thumb/v7e-m+fp/hard\libc-musl.a(__sio_printf_dfoux.o) (__pop_int_needed)
c:/program files/microchip/xc32/v4.21/bin/bin/../../lib/gcc/pic32c/8.3.1/../../../../pic32c/lib/thumb/v7e-m+fp/hard\libc-musl.a(__pop_ptr.o)
                              c:/program files/microchip/xc32/v4.21/bin/bin/../../lib/gcc/pic32c/8.3.1/../../../../pic32c/lib/thumb/v7e-m+fp/hard\libc-musl.a(__sio_printf_dfoux.o) (__pop_ptr_needed)
c:/program files/microchip/xc32/v4.21/bin/bin/../../lib/gcc/pic32c/8.3.1/../../../../pic32c/lib/thumb/v7e-m+fp/hard\libc-musl.a(__printf_core.o)
                              c:/program files/microchip/xc32/v4.21/bin/bin/../../lib/gcc/pic32c/8.3.1/../../../../pic32c/lib/thumb/v7e-m+fp/hard\libc-musl.a(__fmt_d.o) (__pad)
c:/program files/microchip/xc32/v4.21/bin/bin/../../lib/gcc/pic32c/8.3.1/../../../../pic32c/lib/thumb/v7e-m+fp/hard\libc-musl.a(stdin.o)
                              build/default/production/_ext/1171490990/initialization.o (_stdin)
c:/program files/microchip/xc32/v4.21/bin/bin/../../lib/gcc/pic32c/8.3.1/../../../../pic32c/lib/thumb/v7e-m+fp/hard\libc-musl.a(stdout.o)
                              build/default/production/_ext/1171490990/initialization.o (_stdout)
c:/program files/microchip/xc32/v4.21/bin/bin/../../lib/gcc/pic32c/8.3.1/../../../../pic32c/lib/thumb/v7e-m+fp/hard\libc-musl.a(puts.o)
                              build/default/production/_ext/1360937237/main.o (puts)
c:/program files/microchip/xc32/v4.21/bin/bin/../../lib/gcc/pic32c/8.3.1/../../../../pic32c/lib/thumb/v7e-m+fp/hard\libc-musl.a(setbuf.o)
                              build/default/production/_ext/1171490990/initialization.o (setbuf)
c:/program files/microchip/xc32/v4.21/bin/bin/../../lib/gcc/pic32c/8.3.1/../../../../pic32c/lib/thumb/v7e-m+fp/hard\libc-musl.a(atoi.o)
                              c:/program files/microchip/xc32/v4.21/bin/bin/../../lib/gcc/pic32c/8.3.1/../../../../pic32c/lib/thumb/v7e-m+fp/hard\libc-musl.a(__printf_core.o) (atoi)
c:/program files/microchip/xc32/v4.21/bin/bin/../../lib/gcc/pic32c/8.3.1/../../../../pic32c/lib/thumb/v7e-m+fp/hard\libc-musl.a(memcpy.o)
                              build/default/production/_ext/1593096446/plib_nvmctrl.o (memcpy)
c:/program files/microchip/xc32/v4.21/bin/bin/../../lib/gcc/pic32c/8.3.1/../../../../pic32c/lib/thumb/v7e-m+fp/hard\libc-musl.a(memset.o)
                              build/default/production/_ext/1665200909/heap_4.o (memset)
c:/program files/microchip/xc32/v4.21/bin/bin/../../lib/gcc/pic32c/8.3.1/../../../../pic32c/lib/thumb/v7e-m+fp/hard\libc-musl.a(strlen.o)
                              c:/program files/microchip/xc32/v4.21/bin/bin/../../lib/gcc/pic32c/8.3.1/../../../../pic32c/lib/thumb/v7e-m+fp/hard\libc-musl.a(__fmt_fp.o) (strlen)
c:/program files/microchip/xc32/v4.21/bin/bin/../../lib/gcc/pic32c/8.3.1/../../../../pic32c/lib/thumb/v7e-m+fp/hard\libc-musl.a(strcpy.o)
                              c:/program files/microchip/xc32/v4.21/bin/bin/../../lib/gcc/pic32c/8.3.1/../../../../pic32c/lib/thumb/v7e-m+fp/hard\libc-musl.a(__fmt_fp.o) (strcpy)
c:/program files/microchip/xc32/v4.21/bin/bin/../../lib/gcc/pic32c/8.3.1/../../../../pic32c/lib/thumb/v7e-m+fp/hard\libc-musl.a(tolower.o)
                              c:/program files/microchip/xc32/v4.21/bin/bin/../../lib/gcc/pic32c/8.3.1/../../../../pic32c/lib/thumb/v7e-m+fp/hard\libc-musl.a(__fmt_fp.o) (tolower)
c:/program files/microchip/xc32/v4.21/bin/bin/../../lib/gcc/pic32c/8.3.1/../../../../pic32c/lib/thumb/v7e-m+fp/hard\libc-musl.a(toupper.o)
                              c:/program files/microchip/xc32/v4.21/bin/bin/../../lib/gcc/pic32c/8.3.1/../../../../pic32c/lib/thumb/v7e-m+fp/hard\libc-musl.a(__fmt_x.o) (toupper)
c:/program files/microchip/xc32/v4.21/bin/bin/../../lib/gcc/pic32c/8.3.1/../../../../pic32c/lib/thumb/v7e-m+fp/hard\libc-musl.a(__environ.o)
                              c:/program files/microchip/xc32/v4.21/bin/bin/../../lib/gcc/pic32c/8.3.1/../../../../pic32c/lib/thumb/v7e-m+fp/hard\libc-musl.a(__libc_start_main.o) (__environ)
c:/program files/microchip/xc32/v4.21/bin/bin/../../lib/gcc/pic32c/8.3.1/../../../../pic32c/lib/thumb/v7e-m+fp/hard\libc-musl.a(__errno_location.o)
                              c:/program files/microchip/xc32/v4.21/bin/bin/../../lib/gcc/pic32c/8.3.1/../../../../pic32c/lib/thumb/v7e-m+fp/hard\libc-musl.a(__printf_core.o) (__errno_val)
c:/program files/microchip/xc32/v4.21/bin/bin/../../lib/gcc/pic32c/8.3.1/../../../../pic32c/lib/thumb/v7e-m+fp/hard\libc-musl.a(__int_vfprintf.o)
                              c:/program files/microchip/xc32/v4.21/bin/bin/../../lib/gcc/pic32c/8.3.1/../../../../pic32c/lib/thumb/v7e-m+fp/hard\libc-musl.a(__sio_printf_dfoux.o) (__vfprintf)
c:/program files/microchip/xc32/v4.21/bin/bin/../../lib/gcc/pic32c/8.3.1/../../../../pic32c/lib/thumb/v7e-m+fp/hard\libc-musl.a(fputs.o)
                              c:/program files/microchip/xc32/v4.21/bin/bin/../../lib/gcc/pic32c/8.3.1/../../../../pic32c/lib/thumb/v7e-m+fp/hard\libc-musl.a(puts.o) (fputs)
c:/program files/microchip/xc32/v4.21/bin/bin/../../lib/gcc/pic32c/8.3.1/../../../../pic32c/lib/thumb/v7e-m+fp/hard\libc-musl.a(__io_init_needed.o)
                              c:/program files/microchip/xc32/v4.21/bin/bin/../../lib/gcc/pic32c/8.3.1/../../../../pic32c/lib/thumb/v7e-m+fp/hard\libc-musl.a(stdout.o) (__io_init_needed)
c:/program files/microchip/xc32/v4.21/bin/bin/../../lib/gcc/pic32c/8.3.1/../../../../pic32c/lib/thumb/v7e-m+fp/hard\libc-musl.a(__io_rw_needed.o)
                              c:/program files/microchip/xc32/v4.21/bin/bin/../../lib/gcc/pic32c/8.3.1/../../../../pic32c/lib/thumb/v7e-m+fp/hard\libc-musl.a(stdin.o) (__io_rw_needed)
c:/program files/microchip/xc32/v4.21/bin/bin/../../lib/gcc/pic32c/8.3.1/../../../../pic32c/lib/thumb/v7e-m+fp/hard\libc-musl.a(__stdio_read.o)
                              c:/program files/microchip/xc32/v4.21/bin/bin/../../lib/gcc/pic32c/8.3.1/../../../../pic32c/lib/thumb/v7e-m+fp/hard\libc-musl.a(stdin.o) (__stdio_read)
c:/program files/microchip/xc32/v4.21/bin/bin/../../lib/gcc/pic32c/8.3.1/../../../../pic32c/lib/thumb/v7e-m+fp/hard\libc-musl.a(__towrite_rw.o)
                              c:/program files/microchip/xc32/v4.21/bin/bin/../../lib/gcc/pic32c/8.3.1/../../../../pic32c/lib/thumb/v7e-m+fp/hard\libc-musl.a(__io_rw_needed.o) (__towrite_rw_needed)
c:/program files/microchip/xc32/v4.21/bin/bin/../../lib/gcc/pic32c/8.3.1/../../../../pic32c/lib/thumb/v7e-m+fp/hard\libc-musl.a(fwrite.o)
                              c:/program files/microchip/xc32/v4.21/bin/bin/../../lib/gcc/pic32c/8.3.1/../../../../pic32c/lib/thumb/v7e-m+fp/hard\libc-musl.a(fputs.o) (fwrite)
c:/program files/microchip/xc32/v4.21/bin/bin/../../lib/gcc/pic32c/8.3.1/../../../../pic32c/lib/thumb/v7e-m+fp/hard\libc-musl.a(putc.o)
                              c:/program files/microchip/xc32/v4.21/bin/bin/../../lib/gcc/pic32c/8.3.1/../../../../pic32c/lib/thumb/v7e-m+fp/hard\libc-musl.a(puts.o) (putc_unlocked)
c:/program files/microchip/xc32/v4.21/bin/bin/../../lib/gcc/pic32c/8.3.1/../../../../pic32c/lib/thumb/v7e-m+fp/hard\libc-musl.a(setvbuf.o)
                              c:/program files/microchip/xc32/v4.21/bin/bin/../../lib/gcc/pic32c/8.3.1/../../../../pic32c/lib/thumb/v7e-m+fp/hard\libc-musl.a(setbuf.o) (setvbuf)
c:/program files/microchip/xc32/v4.21/bin/bin/../../lib/gcc/pic32c/8.3.1/../../../../pic32c/lib/thumb/v7e-m+fp/hard\libc-musl.a(stpcpy.o)
                              c:/program files/microchip/xc32/v4.21/bin/bin/../../lib/gcc/pic32c/8.3.1/../../../../pic32c/lib/thumb/v7e-m+fp/hard\libc-musl.a(strcpy.o) (__stpcpy)
c:/program files/microchip/xc32/v4.21/bin/bin/../../lib/gcc/pic32c/8.3.1/../../../../pic32c/lib/thumb/v7e-m+fp/hard\libc-musl.a(readv.o)
                              c:/program files/microchip/xc32/v4.21/bin/bin/../../lib/gcc/pic32c/8.3.1/../../../../pic32c/lib/thumb/v7e-m+fp/hard\libc-musl.a(__stdio_read.o) (readv)
c:/program files/microchip/xc32/v4.21/bin/bin/../../lib/gcc/pic32c/8.3.1/../../../../pic32c/lib/thumb/v7e-m+fp/hard\libc-musl.a(malloc.o)
                              c:/program files/microchip/xc32/v4.21/bin/bin/../../lib/gcc/pic32c/8.3.1/../../../../pic32c/lib/thumb/v7e-m+fp/hard\libc-musl.a(setvbuf.o) (malloc)
c:/program files/microchip/xc32/v4.21/bin/bin/../../lib/gcc/pic32c/8.3.1/../../../../pic32c/lib/thumb/v7e-m+fp/hard\libc-musl.a(expand_heap.o)
                              c:/program files/microchip/xc32/v4.21/bin/bin/../../lib/gcc/pic32c/8.3.1/../../../../pic32c/lib/thumb/v7e-m+fp/hard\libc-musl.a(malloc.o) (__expand_heap)
c:/program files/microchip/xc32/v4.21/bin/bin/../../lib/gcc/pic32c/8.3.1/../../../../pic32c/lib/thumb/v7e-m+fp/hard\libc-musl.a(__fopen_rw.o)
                              c:/program files/microchip/xc32/v4.21/bin/bin/../../lib/gcc/pic32c/8.3.1/../../../../pic32c/lib/thumb/v7e-m+fp/hard\libc-musl.a(__io_rw_needed.o) (__fopen_rw_needed)
c:/program files/microchip/xc32/v4.21/bin/bin/../../lib/gcc/pic32c/8.3.1/../../../../pic32c/lib/thumb/v7e-m+fp/hard\libc-musl.a(__ftello_rw.o)
                              c:/program files/microchip/xc32/v4.21/bin/bin/../../lib/gcc/pic32c/8.3.1/../../../../pic32c/lib/thumb/v7e-m+fp/hard\libc-musl.a(__io_rw_needed.o) (__ftello_adj_rw_needed)
c:/program files/microchip/xc32/v4.21/bin/bin/../../lib/gcc/pic32c/8.3.1/../../../../pic32c/lib/thumb/v7e-m+fp/hard\libc-musl.a(__init_stdio.o)
                              c:/program files/microchip/xc32/v4.21/bin/bin/../../lib/gcc/pic32c/8.3.1/../../../../pic32c/lib/thumb/v7e-m+fp/hard\libc-musl.a(__io_init_needed.o) (__init_stdio_needed)
c:/program files/microchip/xc32/v4.21/bin/bin/../../lib/gcc/pic32c/8.3.1/../../../../pic32c/lib/thumb/v7e-m+fp/hard\libc-musl.a(__io_buf_needed.o)
                              c:/program files/microchip/xc32/v4.21/bin/bin/../../lib/gcc/pic32c/8.3.1/../../../../pic32c/lib/thumb/v7e-m+fp/hard\libc-musl.a(__io_rw_needed.o) (__io_buf_needed)
c:/program files/microchip/xc32/v4.21/bin/bin/../../lib/gcc/pic32c/8.3.1/../../../../pic32c/lib/thumb/v7e-m+fp/hard\libc-musl.a(__io_file_needed.o)
                              c:/program files/microchip/xc32/v4.21/bin/bin/../../lib/gcc/pic32c/8.3.1/../../../../pic32c/lib/thumb/v7e-m+fp/hard\libc-musl.a(__io_init_needed.o) (__io_file_needed)
c:/program files/microchip/xc32/v4.21/bin/bin/../../lib/gcc/pic32c/8.3.1/../../../../pic32c/lib/thumb/v7e-m+fp/hard\libc-musl.a(__io_std_needed.o)
                              c:/program files/microchip/xc32/v4.21/bin/bin/../../lib/gcc/pic32c/8.3.1/../../../../pic32c/lib/thumb/v7e-m+fp/hard\libc-musl.a(__io_buf_needed.o) (__io_std_needed)
c:/program files/microchip/xc32/v4.21/bin/bin/../../lib/gcc/pic32c/8.3.1/../../../../pic32c/lib/thumb/v7e-m+fp/hard\libc-musl.a(__out.o)
                              c:/program files/microchip/xc32/v4.21/bin/bin/../../lib/gcc/pic32c/8.3.1/../../../../pic32c/lib/thumb/v7e-m+fp/hard\libc-musl.a(__fopen_rw.o) (__stdio_write_unbuffered)
c:/program files/microchip/xc32/v4.21/bin/bin/../../lib/gcc/pic32c/8.3.1/../../../../pic32c/lib/thumb/v7e-m+fp/hard\libc-musl.a(__putc.o)
                              c:/program files/microchip/xc32/v4.21/bin/bin/../../lib/gcc/pic32c/8.3.1/../../../../pic32c/lib/thumb/v7e-m+fp/hard\libc-musl.a(__io_buf_needed.o) (__putc_needed)
c:/program files/microchip/xc32/v4.21/bin/bin/../../lib/gcc/pic32c/8.3.1/../../../../pic32c/lib/thumb/v7e-m+fp/hard\libc-musl.a(__stderr.o)
                              c:/program files/microchip/xc32/v4.21/bin/bin/../../lib/gcc/pic32c/8.3.1/../../../../pic32c/lib/thumb/v7e-m+fp/hard\libc-musl.a(__io_std_needed.o) (__init_stderr_needed)
c:/program files/microchip/xc32/v4.21/bin/bin/../../lib/gcc/pic32c/8.3.1/../../../../pic32c/lib/thumb/v7e-m+fp/hard\libc-musl.a(__stdio_close.o)
                              c:/program files/microchip/xc32/v4.21/bin/bin/../../lib/gcc/pic32c/8.3.1/../../../../pic32c/lib/thumb/v7e-m+fp/hard\libc-musl.a(__fopen_rw.o) (__stdio_close_rw)
c:/program files/microchip/xc32/v4.21/bin/bin/../../lib/gcc/pic32c/8.3.1/../../../../pic32c/lib/thumb/v7e-m+fp/hard\libc-musl.a(__stdio_exit.o)
                              c:/program files/microchip/xc32/v4.21/bin/bin/../../lib/gcc/pic32c/8.3.1/../../../../pic32c/lib/thumb/v7e-m+fp/hard\libc-musl.a(__io_buf_needed.o) (__stdio_exit_needed)
c:/program files/microchip/xc32/v4.21/bin/bin/../../lib/gcc/pic32c/8.3.1/../../../../pic32c/lib/thumb/v7e-m+fp/hard\libc-musl.a(__stdio_write.o)
                              c:/program files/microchip/xc32/v4.21/bin/bin/../../lib/gcc/pic32c/8.3.1/../../../../pic32c/lib/thumb/v7e-m+fp/hard\libc-musl.a(setvbuf.o) (__stdio_write_buffered)
c:/program files/microchip/xc32/v4.21/bin/bin/../../lib/gcc/pic32c/8.3.1/../../../../pic32c/lib/thumb/v7e-m+fp/hard\libc-musl.a(__stdout.o)
                              c:/program files/microchip/xc32/v4.21/bin/bin/../../lib/gcc/pic32c/8.3.1/../../../../pic32c/lib/thumb/v7e-m+fp/hard\libc-musl.a(__io_std_needed.o) (__init_stdout_needed)
c:/program files/microchip/xc32/v4.21/bin/bin/../../lib/gcc/pic32c/8.3.1/../../../../pic32c/lib/thumb/v7e-m+fp/hard\libc-musl.a(__towrite.o)
                              c:/program files/microchip/xc32/v4.21/bin/bin/../../lib/gcc/pic32c/8.3.1/../../../../pic32c/lib/thumb/v7e-m+fp/hard\libc-musl.a(__stdio_write.o) (__towrite)
c:/program files/microchip/xc32/v4.21/bin/bin/../../lib/gcc/pic32c/8.3.1/../../../../pic32c/lib/thumb/v7e-m+fp/hard\libc-musl.a(writev.o)
                              c:/program files/microchip/xc32/v4.21/bin/bin/../../lib/gcc/pic32c/8.3.1/../../../../pic32c/lib/thumb/v7e-m+fp/hard\libc-musl.a(__stdio_write.o) (writev)
c:/program files/microchip/xc32/v4.21/bin/bin/../../lib/gcc/pic32c/8.3.1/../../../../pic32c/lib/thumb/v7e-m+fp/hard\libc-musl.a(__overflow.o)
                              c:/program files/microchip/xc32/v4.21/bin/bin/../../lib/gcc/pic32c/8.3.1/../../../../pic32c/lib/thumb/v7e-m+fp/hard\libc-musl.a(__putc.o) (__overflow)
c:/program files/microchip/xc32/v4.21/bin/bin/../../lib/gcc/pic32c/8.3.1/../../../../pic32c/lib/thumb/v7e-m+fp/hard\libc-musl.a(__fclose.o)
                              c:/program files/microchip/xc32/v4.21/bin/bin/../../lib/gcc/pic32c/8.3.1/../../../../pic32c/lib/thumb/v7e-m+fp/hard\libc-musl.a(__io_buf_needed.o) (__fclose_needed)
c:/program files/microchip/xc32/v4.21/bin/bin/../../lib/gcc/pic32c/8.3.1/../../../../pic32c/lib/thumb/v7e-m+fp/hard\libc-musl.a(__fopen.o)
                              c:/program files/microchip/xc32/v4.21/bin/bin/../../lib/gcc/pic32c/8.3.1/../../../../pic32c/lib/thumb/v7e-m+fp/hard\libc-musl.a(__io_std_needed.o) (__fopen_needed)
c:/program files/microchip/xc32/v4.21/bin/bin/../../lib/gcc/pic32c/8.3.1/../../../../pic32c/lib/thumb/v7e-m+fp/hard\libc-musl.a(__fseeko.o)
                              c:/program files/microchip/xc32/v4.21/bin/bin/../../lib/gcc/pic32c/8.3.1/../../../../pic32c/lib/thumb/v7e-m+fp/hard\libc-musl.a(__io_buf_needed.o) (__fseeko_needed)
c:/program files/microchip/xc32/v4.21/bin/bin/../../lib/gcc/pic32c/8.3.1/../../../../pic32c/lib/thumb/v7e-m+fp/hard\libc-musl.a(__ftello.o)
                              c:/program files/microchip/xc32/v4.21/bin/bin/../../lib/gcc/pic32c/8.3.1/../../../../pic32c/lib/thumb/v7e-m+fp/hard\libc-musl.a(__io_buf_needed.o) (__ftello_adj_needed)
c:/program files/microchip/xc32/v4.21/bin/bin/../../lib/gcc/pic32c/8.3.1/../../../../pic32c/lib/thumb/v7e-m+fp/hard\libc-musl.a(__fwrite.o)
                              c:/program files/microchip/xc32/v4.21/bin/bin/../../lib/gcc/pic32c/8.3.1/../../../../pic32c/lib/thumb/v7e-m+fp/hard\libc-musl.a(__io_std_needed.o) (__fwrite_needed)
c:/program files/microchip/xc32/v4.21/bin/bin/../../lib/gcc/pic32c/8.3.1/../../../../pic32c/lib/thumb/v7e-m+fp/hard\libm-emfloat.a(fma.o)
                              c:/program files/microchip/xc32/v4.21/bin/bin/../../lib/gcc/pic32c/8.3.1/../../../../pic32c/lib/thumb/v7e-m+fp/hard\libc-musl.a(__fmt_fp.o) (fma)
c:/program files/microchip/xc32/v4.21/bin/bin/../../lib/gcc/pic32c/8.3.1/../../../../pic32c/lib/thumb/v7e-m+fp/hard\libm-emfloat.a(floor.o)
                              c:/program files/microchip/xc32/v4.21/bin/bin/../../lib/gcc/pic32c/8.3.1/../../../../pic32c/lib/thumb/v7e-m+fp/hard\libc-musl.a(__fmt_fp.o) (floor)
c:/program files/microchip/xc32/v4.21/bin/bin/../../lib/gcc/pic32c/8.3.1/../../../../pic32c/lib/thumb/v7e-m+fp/hard\libm-emfloat.a(__aeabi_dcmple.o)
                              c:/program files/microchip/xc32/v4.21/bin/bin/../../lib/gcc/pic32c/8.3.1/../../../../pic32c/lib/thumb/v7e-m+fp/hard\libc-musl.a(__fmt_fp.o) (__aeabi_dcmple)
c:/program files/microchip/xc32/v4.21/bin/bin/../../lib/gcc/pic32c/8.3.1/../../../../pic32c/lib/thumb/v7e-m+fp/hard\libm-emfloat.a(__aeabi_dcmpeq.o)
                              c:/program files/microchip/xc32/v4.21/bin/bin/../../lib/gcc/pic32c/8.3.1/../../../../pic32c/lib/thumb/v7e-m+fp/hard\libc-musl.a(__fmt_fp.o) (__aeabi_dcmpeq)
c:/program files/microchip/xc32/v4.21/bin/bin/../../lib/gcc/pic32c/8.3.1/../../../../pic32c/lib/thumb/v7e-m+fp/hard\libm-emfloat.a(__aeabi_dcmpgt.o)
                              c:/program files/microchip/xc32/v4.21/bin/bin/../../lib/gcc/pic32c/8.3.1/../../../../pic32c/lib/thumb/v7e-m+fp/hard\libc-musl.a(__fmt_fp.o) (__aeabi_dcmpgt)
c:/program files/microchip/xc32/v4.21/bin/bin/../../lib/gcc/pic32c/8.3.1/../../../../pic32c/lib/thumb/v7e-m+fp/hard\libm-emfloat.a(__aeabi_dcmplt.o)
                              c:/program files/microchip/xc32/v4.21/bin/bin/../../lib/gcc/pic32c/8.3.1/../../../../pic32c/lib/thumb/v7e-m+fp/hard\libc-musl.a(__fmt_fp.o) (__aeabi_dcmplt)
c:/program files/microchip/xc32/v4.21/bin/bin/../../lib/gcc/pic32c/8.3.1/../../../../pic32c/lib/thumb/v7e-m+fp/hard\libm-emfloat.a(__aeabi_d2iz.o)
                              c:/program files/microchip/xc32/v4.21/bin/bin/../../lib/gcc/pic32c/8.3.1/../../../../pic32c/lib/thumb/v7e-m+fp/hard\libc-musl.a(__fmt_fp.o) (__aeabi_d2iz)
c:/program files/microchip/xc32/v4.21/bin/bin/../../lib/gcc/pic32c/8.3.1/thumb/v7e-m+fp/hard\libgcc.a(_aeabi_uldivmod.o)
                              build/default/production/_ext/504274921/plib_sercom7_usart.o (__aeabi_uldivmod)
c:/program files/microchip/xc32/v4.21/bin/bin/../../lib/gcc/pic32c/8.3.1/thumb/v7e-m+fp/hard\libgcc.a(_udivmoddi4.o)
                              c:/program files/microchip/xc32/v4.21/bin/bin/../../lib/gcc/pic32c/8.3.1/thumb/v7e-m+fp/hard\libgcc.a(_aeabi_uldivmod.o) (__udivmoddi4)
c:/program files/microchip/xc32/v4.21/bin/bin/../../lib/gcc/pic32c/8.3.1/thumb/v7e-m+fp/hard\libgcc.a(_dvmd_tls.o)
                              c:/program files/microchip/xc32/v4.21/bin/bin/../../lib/gcc/pic32c/8.3.1/thumb/v7e-m+fp/hard\libgcc.a(_aeabi_uldivmod.o) (__aeabi_ldiv0)
c:/program files/microchip/xc32/v4.21/bin/bin/../../lib/gcc/pic32c/8.3.1/../../../../pic32c/lib/thumb/v7e-m+fp/hard\libpic32c.a(close.o)
                              c:/program files/microchip/xc32/v4.21/bin/bin/../../lib/gcc/pic32c/8.3.1/../../../../pic32c/lib/thumb/v7e-m+fp/hard\libc-musl.a(__stdio_close.o) (close)
c:/program files/microchip/xc32/v4.21/bin/bin/../../lib/gcc/pic32c/8.3.1/../../../../pic32c/lib/thumb/v7e-m+fp/hard\libpic32c.a(lseek.o)
                              c:/program files/microchip/xc32/v4.21/bin/bin/../../lib/gcc/pic32c/8.3.1/../../../../pic32c/lib/thumb/v7e-m+fp/hard\libc-musl.a(__stdio_close.o) (lseek)
c:/program files/microchip/xc32/v4.21/bin/bin/../../lib/gcc/pic32c/8.3.1/../../../../pic32c/lib/thumb/v7e-m+fp/hard\libpic32c.a(sbrk.o)
                              c:/program files/microchip/xc32/v4.21/bin/bin/../../lib/gcc/pic32c/8.3.1/../../../../pic32c/lib/thumb/v7e-m+fp/hard\libc-musl.a(expand_heap.o) (_sbrk)

Microchip PIC32 Memory-Usage Report

ROM Program-Memory Usage
section                    address  length [bytes]      (dec)  Description
-------                 ----------  -------------------------  -----------
.vectors                         0          0x260         608   
.text                        0x260           0x20          32  App's exec code 
.ARM.exidx                   0x280            0x8           8   
.dinit                       0x288          0x520        1312   
.text.__fmt_fp               0x7a8          0x4c4        1220   
.text.main                   0xc6c          0x3a4         932   
.text.StartRGB_SENDTask     0x1010          0x340         832   
.rodata                     0x1350          0x310         784  Read-only const 
.text.__printf_core         0x1660          0x2f4         756   
.text                       0x1954          0x2bc         700  App's exec code 
.text.__aeabi_dadd          0x1c10          0x23e         574   
.text.__aeabi_ddiv          0x1e4e          0x216         534   
.text.xTaskCreate           0x2064          0x1f4         500   
.text.CLOCK_Initialize      0x2258          0x1c0         448   
.text.SERCOM3_I2C_Inter     0x2418          0x1bc         444   
.text.malloc                0x25d4          0x1b0         432   
.text.xTaskIncrementTic     0x2784          0x194         404   
.text.xTaskResumeAll        0x2918          0x170         368   
.text.StartRFID_RECEIVE     0x2a88          0x168         360   
.text.NVIC_Initialize       0x2bf0          0x15c         348   
.text.prvTimerTask          0x2d4c          0x15c         348   
.text.__aeabi_dmul          0x2ea8          0x130         304   
.text.xQueueGenericSend     0x2fd8          0x124         292   
.text.__fmt_x               0x30fc          0x11e         286   
.text.EVSYS_Initialize      0x321a            0x2           2   
.text.pvPortMalloc          0x321c          0x118         280   
.text.xQueueReceive         0x3334          0x110         272   
.text.free                  0x3444           0xf8         248   
.text.StartDefaultTask      0x353c           0xec         236   
.text.PORT_Initialize       0x3628           0xe8         232   
.text.xTaskRemoveFromEv     0x3710           0xd8         216   
.text.vTaskSuspend          0x37e8           0xcc         204   
.text.__pic32c_data_ini     0x38b4            0x4           4   
.text.floor                 0x38b8           0xcc         204   
.text.__dummy_fmt4          0x3984            0x4           4   
.text.StartTEMP_ADCTask     0x3988           0xc4         196   
.text.prvAddCurrentTask     0x3a4c           0xb0         176   
.text.__pop_int             0x3afc           0xac         172   
.text.vTaskSwitchContex     0x3ba8           0xa8         168   
.text.__fmt_d               0x3c50           0xa8         168   
.text.vTaskResume           0x3cf8           0xa4         164   
.text.StartMACHINE_STAT     0x3d9c           0xa0         160   
.text.__dummy               0x3e3c            0x4           4   
.text.StartPOWERBANK_MO     0x3e40           0x9c         156   
.text.EIC_Initialize        0x3edc           0x90         144   
.text.xQueueGenericRese     0x3f6c           0x90         144   
.text.xTaskPriorityDisi     0x3ffc           0x8c         140   
.text.SMOKE_DETECTION       0x4088           0x8c         140   
.text.IMD_NOTIFICATION      0x4114           0x8c         140   
.text.SPD_DETECTION         0x41a0           0x8c         140   
.text.EMERGENCY_BTN         0x422c           0x8c         140   
.text.StartRFID_SENDTas     0x42b8           0x8c         140   
.text.__write_buffered      0x4344           0x8a         138   
.text.Dummy_App_Func        0x43ce            0x2           2   
.text.Reset_Handler         0x43d0           0x88         136   
.text.__pad                 0x4458           0x80         128   
.text.prvUnlockQueue        0x44d8           0x7e         126   
.text.xQueueGenericSend     0x4556           0x7c         124   
.text.__pop_ptr             0x45d2           0x7c         124   
.text.Dummy_Handler         0x464e            0x2           2   
.text.SERCOM7_USART_ISR     0x4650           0x78         120   
.text.SERCOM6_USART_ISR     0x46c8           0x78         120   
.text.SERCOM2_USART_ISR     0x4740           0x78         120   
.text.SERCOM1_USART_ISR     0x47b8           0x78         120   
.text.__cvt_u               0x4830           0x78         120   
.text.prvCopyDataToQueu     0x48a8           0x76         118   
.text.__stdio_write_buf     0x491e           0x76         118   
.text.vTaskStartSchedul     0x4994           0x74         116   
.text.SERCOM1_USART_Wri     0x4a08           0x74         116   
.text.__fmt_o               0x4a7c           0x72         114   
.text.NonMaskableInt_Ha     0x4aee            0x2           2   
.text.prvIdleTask           0x4af0           0x70         112   
.text.SYS_Initialize        0x4b60           0x6c         108   
.text.SERCOM7_USART_ISR     0x4bcc           0x68         104   
.text.SERCOM6_USART_ISR     0x4c34           0x68         104   
.text.SERCOM2_USART_ISR     0x4c9c           0x68         104   
.text.LIMIT_SWITCH          0x4d04           0x68         104   
.text.SERCOM1_USART_ISR     0x4d6c           0x68         104   
.text.ADC0_ConversionRe     0x4dd4            0xc          12   
.text.xPortPendSVHandle     0x4de0           0x64         100   
.text.SERCOM3_I2C_Initi     0x4e44           0x60          96   
.text.xTaskCheckForTime     0x4ea4           0x60          96   
.text.__pic32c_data_ini     0x4f04           0x60          96   
.text.__stdio_read          0x4f64           0x60          96   
.text.ADC1_Initialize       0x4fc4           0x5c          92   
.text.ADC0_Initialize       0x5020           0x5c          92   
.text.prvSampleTimeNow      0x507c           0x5c          92   
.text.__libc_start_init     0x50d8           0x5c          92   
.rodata                     0x5134           0x5c          92  Read-only const 
.text.__stdio_close_rw      0x5190           0x5c          92   
.text.SERCOM7_USART_Int     0x51ec           0x58          88   
.text.SERCOM6_USART_Int     0x5244           0x58          88   
.text.SERCOM2_USART_Int     0x529c           0x58          88   
.text.prvInsertBlockInt     0x52f4           0x58          88   
.text.SERCOM1_USART_Int     0x534c           0x58          88   
.text.__fmt_s               0x53a4           0x58          88   
.text.unbin                 0x53fc           0x58          88   
.text.__fmt_u               0x5454           0x56          86   
.text.HardFault_Handler     0x54aa            0x2           2   
.text.SERCOM7_USART_Ini     0x54ac           0x54          84   
.text.SERCOM6_USART_Ini     0x5500           0x54          84   
.text.SERCOM2_USART_Ini     0x5554           0x54          84   
.text.SERCOM1_USART_Ini     0x55a8           0x54          84   
.text.SERCOM5_USART_Rea     0x55fc           0x50          80   
.text.vPortFree             0x564c           0x50          80   
.text.prvCheckForValidL     0x569c           0x50          80   
.text.vQueueWaitForMess     0x56ec           0x4e          78   
.text.__overflow            0x573a           0x4e          78   
.text.SERCOM3_I2C_Initi     0x5788           0x4c          76   
.text.xTimerGenericComm     0x57d4           0x4c          76   
.text.__aeabi_d2f           0x5820           0x4c          76   
.text.setvbuf               0x586c           0x4c          76   
.text.xQueueGenericCrea     0x58b8           0x4a          74   
.text.__aeabi_d2iz          0x5902           0x4a          74   
.text.xPortStartSchedul     0x594c           0x48          72   
.text.prvInsertTimerInA     0x5994           0x48          72   
.text.xTimerCreate          0x59dc           0x46          70   
.text.atoi                  0x5a22           0x46          70   
.text.SERCOM5_USART_Wri     0x5a68           0x44          68   
.text.RED_t1                0x5aac           0x44          68   
.text                       0x5af0           0x40          64  App's exec code 
.text.SERCOM7_USART_Rea     0x5b30           0x40          64   
.text.SERCOM6_USART_Rea     0x5b70           0x40          64   
.text.SERCOM2_USART_Rea     0x5bb0           0x40          64   
.text.prvProcessExpired     0x5bf0           0x40          64   
.text.xTimerCreateTimer     0x5c30           0x40          64   
.text.StartESP_RECEIVET     0x5c70           0x40          64   
.text.GREEN_BLUE            0x5cb0           0x40          64   
.text.GREEN_BLUE1           0x5cf0           0x40          64   
.text.RED_t                 0x5d30           0x40          64   
.text.SERCOM1_USART_Rea     0x5d70           0x40          64   
.text.adjust_size           0x5db0           0x40          64   
.text.__putc                0x5df0           0x3e          62   
.text.DebugMonitor_Hand     0x5e2e            0x2           2   
.text.TCC4_PWMInitializ     0x5e30           0x3c          60   
.text.vTaskPlaceOnEvent     0x5e6c           0x3c          60   
.text.__aeabi_dcmple        0x5ea8           0x3c          60   
.text.__out                 0x5ee4           0x3a          58   
.text.MemoryManagement_     0x5f1e            0x2           2   
.text.SERCOM7_USART_ISR     0x5f20           0x38          56   
.text.SERCOM6_USART_ISR     0x5f58           0x38          56   
.text.SERCOM2_USART_ISR     0x5f90           0x38          56   
.text.SERCOM1_USART_ISR     0x5fc8           0x38          56   
.text.__fmt_state           0x6000           0x38          56   
.text.__putc_unbuffered     0x6038           0x38          56   
.text.bin_index             0x6070           0x38          56   
.text.__aeabi_dcmpgt        0x60a8           0x38          56   
.text.__aeabi_dcmplt        0x60e0           0x38          56   
.text.SERCOM5_USART_Ini     0x6118           0x34          52   
.text.TC0_CompareInitia     0x614c           0x34          52   
.text.TC1_CompareInitia     0x6180           0x34          52   
.text.TC5_CompareInitia     0x61b4           0x34          52   
.text.vListInsert           0x61e8           0x34          52   
.text.vTaskDelay            0x621c           0x34          52   
.text.PHASE2_NOTIFICATI     0x6250           0x34          52   
.text.PHASE1_NOTIFICATI     0x6284           0x34          52   
.text.__aeabi_f2d           0x62b8           0x34          52   
.text.__aeabi_dcmpeq        0x62ec           0x32          50   
.text.BusFault_Handler      0x631e            0x2           2   
.text.EIC_CallbackRegis     0x6320           0x30          48   
.text.SERCOM7_USART_Err     0x6350           0x30          48   
.text.SERCOM6_USART_Err     0x6380           0x30          48   
.text.SERCOM2_USART_Err     0x63b0           0x30          48   
.text.SERCOM5_USART_Err     0x63e0           0x30          48   
.text.SERCOM1_USART_Err     0x6410           0x30          48   
.text.__readv               0x6440           0x30          48   
.text.alloc_rev             0x6470           0x30          48   
.text.__writev              0x64a0           0x30          48   
.text                       0x64d0           0x30          48  App's exec code 
.text.trim                  0x6500           0x2e          46   
.text.UsageFault_Handle     0x652e            0x2           2   
.text.pxPortInitialiseS     0x6530           0x2c          44   
.text.xPortSysTickHandl     0x655c           0x2c          44   
.text.alloc_fwd             0x6588           0x2c          44   
.text.fma                   0x65b4           0x2c          44   
.text._sbrk                 0x65e0           0x2c          44   
.text.__pop_float           0x660c           0x2a          42   
.text.fwrite                0x6636           0x2a          42   
.text.EIC_EXTINT_11_Int     0x6660           0x28          40   
.text.prvPortStartFirst     0x6688           0x28          40   
.text.vPortSetupTimerIn     0x66b0           0x28          40   
.text.prvResetNextTaskU     0x66d8           0x28          40   
.text.StartHMI_RECEIVET     0x6700           0x28          40   
.text.puts                  0x6728           0x28          40   
.text.__towrite_rw          0x6750           0x28          40   
.text.prvReloadTimer        0x6778           0x26          38   
.text.__dummy               0x679e            0x2           2   
.text.ADC0_ChannelSelec     0x67a0           0x24          36   
.text.ADC0_ConversionSt     0x67c4           0x24          36   
.text.EIC_EXTINT_8_Inte     0x67e8           0x24          36   
.text.EIC_EXTINT_9_Inte     0x680c           0x24          36   
.text.EIC_EXTINT_10_Int     0x6830           0x24          36   
.text.SERCOM7_USART_Rea     0x6854            0xc          12   
.text.vPortSVCHandler       0x6860           0x24          36   
.text.uxListRemove          0x6884           0x24          36   
.text.prvCopyDataFromQu     0x68a8           0x24          36   
.text.RGB2_AVAILABLITY_     0x68cc           0x24          36   
.text.RGB1_AVAILABLITY_     0x68f0           0x24          36   
.text.__wrap_printf         0x6914           0x24          36   
.text.fputs                 0x6938           0x22          34   
.text.__dummy               0x695a            0x2           2   
.text.EIC_EXTINT_1_Inte     0x695c           0x20          32   
.text.EIC_EXTINT_2_Inte     0x697c           0x20          32   
.text.EIC_EXTINT_5_Inte     0x699c           0x20          32   
.text.EIC_EXTINT_6_Inte     0x69bc           0x20          32   
.text.EIC_EXTINT_7_Inte     0x69dc           0x20          32   
.text.prvTaskExitError      0x69fc           0x20          32   
.text.vPortEnterCritica     0x6a1c           0x20          32   
.text.xTaskGetScheduler     0x6a3c           0x20          32   
.text.StartESP_SENDTask     0x6a5c           0x20          32   
.text.StartAC_DC_METER_     0x6a7c           0x20          32   
.text.StartHMI_SENDTask     0x6a9c           0x20          32   
.text.lock_bin              0x6abc           0x20          32   
.text.read                  0x6adc           0x1e          30   
.text.write                 0x6afa           0x1c          28   
.text.__dummy               0x6b16            0x2           2   
.text.vTaskPlaceOnEvent     0x6b18           0x1c          28   
.rodata                     0x6b34           0x1c          28  Read-only const 
.text.__vfprintf            0x6b50           0x1c          28   
.text.ADC0_Enable           0x6b6c           0x18          24   
.text.ADC0_ConversionSt     0x6b84           0x18          24   
.text.TC0_CompareStart      0x6b9c           0x18          24   
.text.TC0_CompareStop       0x6bb4           0x18          24   
.text.TC1_CompareStart      0x6bcc           0x18          24   
.text.TC1_CompareStop       0x6be4           0x18          24   
.text.TC5_CompareStart      0x6bfc           0x18          24   
.text.TC5_CompareStop       0x6c14           0x18          24   
.text.TCC4_PWMStart         0x6c2c           0x18          24   
.text.TCC4_PWMStop          0x6c44           0x18          24   
.text.vTaskInternalSetT     0x6c5c           0x18          24   
.text.__towrite             0x6c74           0x18          24   
.text.__fwrite              0x6c8c           0x18          24   
.text.vListInitialise       0x6ca4           0x16          22   
.text.vListInsertEnd        0x6cba           0x16          22   
.text.prvIsQueueEmpty       0x6cd0           0x16          22   
.text.__expand_heap         0x6ce6           0x16          22   
.text.vPortEnableVFP        0x6cfc           0x14          20   
.text.vPortExitCritical     0x6d10           0x14          20   
.text.__init_stdout         0x6d24           0x14          20   
.text.vApplicationStack     0x6d38           0x12          18   
.text.vApplicationMallo     0x6d4a           0x12          18   
.text.memcpy                0x6d5c           0x12          18   
.text.stpcpy                0x6d6e           0x12          18   
.text.NVMCTRL_Initializ     0x6d80           0x10          16   
.text.vTaskSuspendAll       0x6d90           0x10          16   
.text.ESP_CALLBACK          0x6da0           0x10          16   
.text.AC_DC_METER_CALLB     0x6db0           0x10          16   
.text.RFID_CALLBACK         0x6dc0           0x10          16   
.text.HMI_CALLBACK          0x6dd0           0x10          16   
.text.SERCOM1_USART_Tra     0x6de0           0x10          16   
.rodata                     0x6df0           0x10          16  Read-only const 
.text.setbuf                0x6e00           0x10          16   
.text.memset                0x6e10           0x10          16   
.text.strlen                0x6e20           0x10          16   
.text.__init_stdio          0x6e30           0x10          16   
.text.tolower               0x6e40            0xe          14   
.text.toupper               0x6e4e            0xe          14   
.text.SERCOM6_USART_Rea     0x6e5c            0xc          12   
.text.SERCOM2_USART_Rea     0x6e68            0xc          12   
.text.xTaskGetTickCount     0x6e74            0xc          12   
.text.uxTaskGetNumberOf     0x6e80            0xc          12   
.text.vTaskMissedYield      0x6e8c            0xc          12   
.text.MainsCallback         0x6e98            0xc          12   
.text.StartAC_DC_METER_     0x6ea4            0xc          12   
.text.StartTEMP_HUMITas     0x6eb0            0xc          12   
.text.StartGUN_TEMPTask     0x6ebc            0xc          12   
.text.SERCOM1_USART_Rea     0x6ec8            0xc          12   
.text.strcpy                0x6ed4            0xc          12   
.rodata                     0x6ee0           0x10          16  Read-only const 
.text.__aeabi_dsub          0x6ef0            0x8           8   
.text.putc                  0x6ef8            0x8           8   
.text.__get_stdout          0x6f00            0x8           8   
.rodata                     0x6f08            0x7           7  Read-only const 
.text.vListInitialiseIt     0x6f10            0x6           6   
.text.__fwrite_min          0x6f16            0x6           6   
.text.close                 0x6f1c            0x6           6   
.text                       0x6f24            0x4           4  App's exec code 
.text.lseek                 0x6f28            0x4           4   
      Total ROM used  :      0x6f29       28457  2.7% of 0x100000
        --------------------------------------------------------------------------
         Total Program Memory used  :      0x6f29       28457  2.7% of 0x100000
        --------------------------------------------------------------------------


RAM Data-Memory Usage
section                    address  length [bytes]      (dec)  Description
-------                 ----------  -------------------------  -----------
.bss.ucHeap             0x20000000         0xee20       60960   
.bss                    0x2000ee20          0x614        1556  Uninitialized data 
.bss.ESP_RX_DATA        0x2000f434          0x208         520   
.bss.AC_DC_METER_RX_DAT 0x2000f63c          0x104         260   
.bss.eicCallbackObject  0x2000f740           0xc0         192   
.bss.pxReadyTasksLists  0x2000f800           0x64         100   
.bss                    0x2000f864           0x50          80  Uninitialized data 
.bss.HMI_RX_DATA        0x2000f8b4           0x32          50   
.bss.RGB_STATE.10234    0x2000f8e6            0x1           1   
.bss.state.10341        0x2000f8e7            0x1           1   
.bss.RFID_DATA          0x2000f8e8           0x32          50   
.data.CURRENT_RFID_RX_S 0x2000f91a            0x1           1   
.bss.sercom7USARTObj    0x2000f91c           0x30          48   
.bss.sercom6USARTObj    0x2000f94c           0x30          48   
.bss.sercom2USARTObj    0x2000f97c           0x30          48   
.bss.sercom1USARTObj    0x2000f9ac           0x30          48   
.bss.sercom3I2CObj      0x2000f9dc           0x2c          44   
.bss                    0x2000fa08           0x1c          28  Uninitialized data 
.bss.xActiveTimerList1  0x2000fa24           0x14          20   
.bss.xActiveTimerList2  0x2000fa38           0x14          20   
.bss.xDelayedTaskList1  0x2000fa4c           0x14          20   
.bss.xDelayedTaskList2  0x2000fa60           0x14          20   
.bss.xPendingReadyList  0x2000fa74           0x14          20   
.bss.xSuspendedTaskList 0x2000fa88           0x14          20   
.bss.xTasksWaitingTermi 0x2000fa9c           0x14          20   
.bss.xStart             0x2000fab0            0x8           8   
.bss                    0x2000fab8            0x8           8  Uninitialized data 
.bss.pxEnd              0x2000fac0            0x4           4   
.bss.xFreeBytesRemainin 0x2000fac4            0x4           4   
.bss.xMinimumEverFreeBy 0x2000fac8            0x4           4   
.bss.xNumberOfSuccessfu 0x2000facc            0x4           4   
.bss.xNumberOfSuccessfu 0x2000fad0            0x4           4   
.bss.pxCurrentTimerList 0x2000fad4            0x4           4   
.bss.pxOverflowTimerLis 0x2000fad8            0x4           4   
.bss.xLastTime.6497     0x2000fadc            0x4           4   
.bss.xTimerQueue        0x2000fae0            0x4           4   
.bss.xTimerTaskHandle   0x2000fae4            0x4           4   
.bss.pxCurrentTCB       0x2000fae8            0x4           4   
.bss.pxDelayedTaskList  0x2000faec            0x4           4   
.bss.pxOverflowDelayedT 0x2000faf0            0x4           4   
.bss.uxCurrentNumberOfT 0x2000faf4            0x4           4   
.bss.uxDeletedTasksWait 0x2000faf8            0x4           4   
.bss.uxSchedulerSuspend 0x2000fafc            0x4           4   
.bss.uxTaskNumber       0x2000fb00            0x4           4   
.bss.uxTopReadyPriority 0x2000fb04            0x4           4   
.bss.xIdleTaskHandle    0x2000fb08            0x4           4   
.bss.xNextTaskUnblockTi 0x2000fb0c            0x4           4   
.bss.xNumOfOverflows    0x2000fb10            0x4           4   
.bss.xPendedTicks       0x2000fb14            0x4           4   
.bss.xSchedulerRunning  0x2000fb18            0x4           4   
.bss.xTickCount         0x2000fb1c            0x4           4   
.bss.xYieldPending      0x2000fb20            0x4           4   
.bss.AC_DC_METER_QUEUE  0x2000fb24            0x4           4   
.bss.AC_DC_METER_RECEIV 0x2000fb28            0x4           4   
.bss.AC_DC_METER_SEND_T 0x2000fb2c            0x4           4   
.bss.ESP_QUEUE          0x2000fb30            0x4           4   
.bss.ESP_RECEIVE_TaskHa 0x2000fb34            0x4           4   
.bss.ESP_SEND_TaskHandl 0x2000fb38            0x4           4   
.bss.GUN_TEMP_TaskHandl 0x2000fb3c            0x4           4   
.bss.HMI_QUEUE          0x2000fb40            0x4           4   
.bss.HMI_RECEIVE_TaskHa 0x2000fb44            0x4           4   
.bss.HMI_SEND_TaskHandl 0x2000fb48            0x4           4   
.bss.MACHINE_STATE      0x2000fb4c            0x4           4   
.bss.MACHINE_STATEHandl 0x2000fb50            0x4           4   
.bss.POWERBANK_MONITOR_ 0x2000fb54            0x4           4   
.bss.RFID_ID_RECEIVED.1 0x2000fb58            0x4           4   
.bss.RFID_RECEIVEHandle 0x2000fb5c            0x4           4   
.bss.RFID_SENDHandle    0x2000fb60            0x4           4   
.bss.RGB1_QUEUE         0x2000fb64            0x4           4   
.bss.RGB_QUEUE          0x2000fb68            0x4           4   
.bss.RGB_SEND_TaskHandl 0x2000fb6c            0x4           4   
.bss.TEMP_ADC_TaskHandl 0x2000fb70            0x4           4   
.bss.TEMP_HUMI_TaskHand 0x2000fb74            0x4           4   
.bss.count.10224        0x2000fb78            0x4           4   
.bss.defaultTaskHandle  0x2000fb7c            0x4           4   
.bss.mains_timer        0x2000fb80            0x4           4   
.bss.tick1              0x2000fb84            0x4           4   
.bss.tick2              0x2000fb88            0x4           4   
.bss                    0x2000fb8c           0x10          16  Uninitialized data 
.data                   0x2000fb9c           0xec         236  Initialized data 
.data.uxCriticalNesting 0x2000fc88            0x4           4   
.data.uxTopUsedPriority 0x2000fc8c            0x4           4   
         Total RAM used  :      0xfc8f       64655  24.7% of 0x40000
        --------------------------------------------------------------------------
            Total Data Memory used  :      0xfc8f       64655  24.7% of 0x40000
        --------------------------------------------------------------------------


Dynamic Data-Memory Reservation
section                    address  length [bytes]      (dec)  Description
-------                 ----------  -------------------------  -----------
heap                    0x2000fc98          0x200         512  Reserved for heap 
stack                   0x2000feb0        0x30148      196936  Reserved for stack 

        --------------------------------------------------------------------------

Discarded input sections

 .text          0x00000000        0x0 c:/program files/microchip/xc32/v4.21/bin/bin/../../lib/gcc/pic32c/8.3.1/thumb/v7e-m+fp/hard/crti.o
 .data          0x00000000        0x0 c:/program files/microchip/xc32/v4.21/bin/bin/../../lib/gcc/pic32c/8.3.1/thumb/v7e-m+fp/hard/crti.o
 .bss           0x00000000        0x0 c:/program files/microchip/xc32/v4.21/bin/bin/../../lib/gcc/pic32c/8.3.1/thumb/v7e-m+fp/hard/crti.o
 .xc_stack_usage.hdr
                0x00000000        0xe c:/program files/microchip/xc32/v4.21/bin/bin/../../lib/gcc/pic32c/8.3.1/thumb/v7e-m+fp/hard/crti.o
 .xc_stack_usage
                0x00000000       0x26 c:/program files/microchip/xc32/v4.21/bin/bin/../../lib/gcc/pic32c/8.3.1/thumb/v7e-m+fp/hard/crti.o
 .data          0x00000000        0x4 c:/program files/microchip/xc32/v4.21/bin/bin/../../lib/gcc/pic32c/8.3.1/thumb/v7e-m+fp/hard/crtbegin.o
 .xc_stack_usage
                0x00000000       0x3c c:/program files/microchip/xc32/v4.21/bin/bin/../../lib/gcc/pic32c/8.3.1/thumb/v7e-m+fp/hard/crtbegin.o
 .xc_stack_usage.hdr
                0x00000000        0xe c:/program files/microchip/xc32/v4.21/bin/bin/../../lib/gcc/pic32c/8.3.1/thumb/v7e-m+fp/hard/crtbegin.o
 .text          0x00000000        0x0 build/default/production/_ext/60163342/plib_adc1.o
 .data          0x00000000        0x0 build/default/production/_ext/60163342/plib_adc1.o
 .bss           0x00000000        0x0 build/default/production/_ext/60163342/plib_adc1.o
 .text.ADC1_Enable
                0x00000000       0x18 build/default/production/_ext/60163342/plib_adc1.o
 .text.ADC1_Disable
                0x00000000       0x1c build/default/production/_ext/60163342/plib_adc1.o
 .text.ADC1_ChannelSelect
                0x00000000       0x24 build/default/production/_ext/60163342/plib_adc1.o
 .text.ADC1_ConversionStart
                0x00000000       0x18 build/default/production/_ext/60163342/plib_adc1.o
 .text.ADC1_ComparisonWindowSet
                0x00000000       0x14 build/default/production/_ext/60163342/plib_adc1.o
 .text.ADC1_WindowModeSet
                0x00000000       0x24 build/default/production/_ext/60163342/plib_adc1.o
 .text.ADC1_ConversionResultGet
                0x00000000        0xc build/default/production/_ext/60163342/plib_adc1.o
 .text.ADC1_LastConversionResultGet
                0x00000000        0xc build/default/production/_ext/60163342/plib_adc1.o
 .text.ADC1_InterruptsClear
                0x00000000        0xc build/default/production/_ext/60163342/plib_adc1.o
 .text.ADC1_InterruptsEnable
                0x00000000        0xc build/default/production/_ext/60163342/plib_adc1.o
 .text.ADC1_InterruptsDisable
                0x00000000        0xc build/default/production/_ext/60163342/plib_adc1.o
 .text.ADC1_ConversionStatusGet
                0x00000000       0x24 build/default/production/_ext/60163342/plib_adc1.o
 .text          0x00000000        0x0 build/default/production/_ext/60163342/plib_adc0.o
 .data          0x00000000        0x0 build/default/production/_ext/60163342/plib_adc0.o
 .bss           0x00000000        0x0 build/default/production/_ext/60163342/plib_adc0.o
 .text.ADC0_Disable
                0x00000000       0x1c build/default/production/_ext/60163342/plib_adc0.o
 .text.ADC0_ComparisonWindowSet
                0x00000000       0x14 build/default/production/_ext/60163342/plib_adc0.o
 .text.ADC0_WindowModeSet
                0x00000000       0x24 build/default/production/_ext/60163342/plib_adc0.o
 .text.ADC0_LastConversionResultGet
                0x00000000        0xc build/default/production/_ext/60163342/plib_adc0.o
 .text.ADC0_InterruptsClear
                0x00000000        0xc build/default/production/_ext/60163342/plib_adc0.o
 .text.ADC0_InterruptsEnable
                0x00000000        0xc build/default/production/_ext/60163342/plib_adc0.o
 .text.ADC0_InterruptsDisable
                0x00000000        0xc build/default/production/_ext/60163342/plib_adc0.o
 .text          0x00000000        0x0 build/default/production/_ext/1984496892/plib_clock.o
 .data          0x00000000        0x0 build/default/production/_ext/1984496892/plib_clock.o
 .bss           0x00000000        0x0 build/default/production/_ext/1984496892/plib_clock.o
 .text          0x00000000        0x0 build/default/production/_ext/1865131932/plib_cmcc.o
 .data          0x00000000        0x0 build/default/production/_ext/1865131932/plib_cmcc.o
 .bss           0x00000000        0x0 build/default/production/_ext/1865131932/plib_cmcc.o
 .text.CMCC_Disable
                0x00000000       0x18 build/default/production/_ext/1865131932/plib_cmcc.o
 .text.CMCC_EnableICache
                0x00000000       0x28 build/default/production/_ext/1865131932/plib_cmcc.o
 .text.CMCC_DisableICache
                0x00000000       0x28 build/default/production/_ext/1865131932/plib_cmcc.o
 .text.CMCC_EnableDCache
                0x00000000       0x28 build/default/production/_ext/1865131932/plib_cmcc.o
 .text.CMCC_DisableDCache
                0x00000000       0x28 build/default/production/_ext/1865131932/plib_cmcc.o
 .text.CMCC_InvalidateAll
                0x00000000       0x20 build/default/production/_ext/1865131932/plib_cmcc.o
 .debug_info    0x00000000      0x530 build/default/production/_ext/1865131932/plib_cmcc.o
 .debug_abbrev  0x00000000       0x99 build/default/production/_ext/1865131932/plib_cmcc.o
 .debug_aranges
                0x00000000       0x48 build/default/production/_ext/1865131932/plib_cmcc.o
 .debug_ranges  0x00000000       0x38 build/default/production/_ext/1865131932/plib_cmcc.o
 .debug_line    0x00000000      0x207 build/default/production/_ext/1865131932/plib_cmcc.o
 .debug_str     0x00000000        0x0 build/default/production/_ext/1865131932/plib_cmcc.o
 .comment       0x00000000       0x2c build/default/production/_ext/1865131932/plib_cmcc.o
 .debug_frame   0x00000000       0x70 build/default/production/_ext/1865131932/plib_cmcc.o
 .ARM.attributes
                0x00000000       0x34 build/default/production/_ext/1865131932/plib_cmcc.o
 .text          0x00000000        0x0 build/default/production/_ext/60167341/plib_eic.o
 .data          0x00000000        0x0 build/default/production/_ext/60167341/plib_eic.o
 .bss           0x00000000        0x0 build/default/production/_ext/60167341/plib_eic.o
 .text.EIC_InterruptEnable
                0x00000000       0x10 build/default/production/_ext/60167341/plib_eic.o
 .text.EIC_InterruptDisable
                0x00000000       0x10 build/default/production/_ext/60167341/plib_eic.o
 .text          0x00000000        0x0 build/default/production/_ext/1986646378/plib_evsys.o
 .data          0x00000000        0x0 build/default/production/_ext/1986646378/plib_evsys.o
 .bss           0x00000000        0x0 build/default/production/_ext/1986646378/plib_evsys.o
 .text          0x00000000        0x0 build/default/production/_ext/1865468468/plib_nvic.o
 .data          0x00000000        0x0 build/default/production/_ext/1865468468/plib_nvic.o
 .bss           0x00000000        0x0 build/default/production/_ext/1865468468/plib_nvic.o
 .text.NVIC_INT_Enable
                0x00000000        0x8 build/default/production/_ext/1865468468/plib_nvic.o
 .text.NVIC_INT_Disable
                0x00000000       0x12 build/default/production/_ext/1865468468/plib_nvic.o
 .text.NVIC_INT_Restore
                0x00000000       0x12 build/default/production/_ext/1865468468/plib_nvic.o
 .text          0x00000000        0x0 build/default/production/_ext/1593096446/plib_nvmctrl.o
 .data          0x00000000        0x0 build/default/production/_ext/1593096446/plib_nvmctrl.o
 .bss           0x00000000        0x0 build/default/production/_ext/1593096446/plib_nvmctrl.o
 .text.NVMCTRL_Read
                0x00000000       0x10 build/default/production/_ext/1593096446/plib_nvmctrl.o
 .text.NVMCTRL_SetWriteMode
                0x00000000       0x14 build/default/production/_ext/1593096446/plib_nvmctrl.o
 .text.NVMCTRL_QuadWordWrite
                0x00000000       0x4c build/default/production/_ext/1593096446/plib_nvmctrl.o
 .text.NVMCTRL_DoubleWordWrite
                0x00000000       0x40 build/default/production/_ext/1593096446/plib_nvmctrl.o
 .text.NVMCTRL_PageBufferWrite
                0x00000000       0x2c build/default/production/_ext/1593096446/plib_nvmctrl.o
 .text.NVMCTRL_PageBufferCommit
                0x00000000       0x28 build/default/production/_ext/1593096446/plib_nvmctrl.o
 .text.NVMCTRL_PageWrite
                0x00000000       0x40 build/default/production/_ext/1593096446/plib_nvmctrl.o
 .text.NVMCTRL_BlockErase
                0x00000000       0x1c build/default/production/_ext/1593096446/plib_nvmctrl.o
 .text.NVMCTRL_USER_ROW_RowErase
                0x00000000       0x30 build/default/production/_ext/1593096446/plib_nvmctrl.o
 .text.NVMCTRL_ErrorGet
                0x00000000       0x20 build/default/production/_ext/1593096446/plib_nvmctrl.o
 .text.NVMCTRL_StatusGet
                0x00000000        0xc build/default/production/_ext/1593096446/plib_nvmctrl.o
 .text.NVMCTRL_IsBusy
                0x00000000       0x14 build/default/production/_ext/1593096446/plib_nvmctrl.o
 .text.NVMCTRL_USER_ROW_PageWrite
                0x00000000       0x6c build/default/production/_ext/1593096446/plib_nvmctrl.o
 .text.NVMCTRL_RegionLock
                0x00000000       0x10 build/default/production/_ext/1593096446/plib_nvmctrl.o
 .text.NVMCTRL_RegionUnlock
                0x00000000       0x10 build/default/production/_ext/1593096446/plib_nvmctrl.o
 .text.NVMCTRL_RegionLockStatusGet
                0x00000000        0xc build/default/production/_ext/1593096446/plib_nvmctrl.o
 .text.NVMCTRL_SecurityBitSet
                0x00000000       0x10 build/default/production/_ext/1593096446/plib_nvmctrl.o
 .text.NVMCTRL_SmartEEPROM_IsBusy
                0x00000000       0x10 build/default/production/_ext/1593096446/plib_nvmctrl.o
 .text.NVMCTRL_SmartEEPROMStatusGet
                0x00000000        0xc build/default/production/_ext/1593096446/plib_nvmctrl.o
 .text.NVMCTRL_SmartEEPROM_IsActiveSectorFull
                0x00000000       0x10 build/default/production/_ext/1593096446/plib_nvmctrl.o
 .text.NVMCTRL_BankSwap
                0x00000000       0x10 build/default/production/_ext/1593096446/plib_nvmctrl.o
 .text.NVMCTRL_SmartEEPROMSectorReallocate
                0x00000000       0x10 build/default/production/_ext/1593096446/plib_nvmctrl.o
 .text.NVMCTRL_SmartEEPROMFlushPageBuffer
                0x00000000       0x18 build/default/production/_ext/1593096446/plib_nvmctrl.o
 .bss.nvm_error
                0x00000000        0x2 build/default/production/_ext/1593096446/plib_nvmctrl.o
 .text          0x00000000        0x0 build/default/production/_ext/1865521619/plib_port.o
 .data          0x00000000        0x0 build/default/production/_ext/1865521619/plib_port.o
 .bss           0x00000000        0x0 build/default/production/_ext/1865521619/plib_port.o
 .text.PORT_GroupRead
                0x00000000        0x4 build/default/production/_ext/1865521619/plib_port.o
 .text.PORT_GroupWrite
                0x00000000        0xc build/default/production/_ext/1865521619/plib_port.o
 .text.PORT_GroupLatchRead
                0x00000000        0x4 build/default/production/_ext/1865521619/plib_port.o
 .text.PORT_GroupSet
                0x00000000        0x4 build/default/production/_ext/1865521619/plib_port.o
 .text.PORT_GroupClear
                0x00000000        0x4 build/default/production/_ext/1865521619/plib_port.o
 .text.PORT_GroupToggle
                0x00000000        0x4 build/default/production/_ext/1865521619/plib_port.o
 .text.PORT_GroupInputEnable
                0x00000000        0x4 build/default/production/_ext/1865521619/plib_port.o
 .text.PORT_GroupOutputEnable
                0x00000000        0x4 build/default/production/_ext/1865521619/plib_port.o
 .text.PORT_PinPeripheralFunctionConfig
                0x00000000       0x4a build/default/production/_ext/1865521619/plib_port.o
 .text.PORT_PinGPIOConfig
                0x00000000       0x20 build/default/production/_ext/1865521619/plib_port.o
 .text          0x00000000        0x0 build/default/production/_ext/508257091/plib_sercom3_i2c_master.o
 .data          0x00000000        0x0 build/default/production/_ext/508257091/plib_sercom3_i2c_master.o
 .bss           0x00000000        0x0 build/default/production/_ext/508257091/plib_sercom3_i2c_master.o
 .text.SERCOM3_I2C_TransferSetup
                0x00000000      0x100 build/default/production/_ext/508257091/plib_sercom3_i2c_master.o
 .text.SERCOM3_I2C_CallbackRegister
                0x00000000        0xc build/default/production/_ext/508257091/plib_sercom3_i2c_master.o
 .text.SERCOM3_I2C_Read
                0x00000000       0x38 build/default/production/_ext/508257091/plib_sercom3_i2c_master.o
 .text.SERCOM3_I2C_Write
                0x00000000       0x34 build/default/production/_ext/508257091/plib_sercom3_i2c_master.o
 .text.SERCOM3_I2C_WriteRead
                0x00000000       0x34 build/default/production/_ext/508257091/plib_sercom3_i2c_master.o
 .text.SERCOM3_I2C_IsBusy
                0x00000000       0x28 build/default/production/_ext/508257091/plib_sercom3_i2c_master.o
 .text.SERCOM3_I2C_ErrorGet
                0x00000000        0xc build/default/production/_ext/508257091/plib_sercom3_i2c_master.o
 .text.SERCOM3_I2C_TransferAbort
                0x00000000       0x44 build/default/production/_ext/508257091/plib_sercom3_i2c_master.o
 .text          0x00000000        0x0 build/default/production/_ext/504274921/plib_sercom7_usart.o
 .data          0x00000000        0x0 build/default/production/_ext/504274921/plib_sercom7_usart.o
 .bss           0x00000000        0x0 build/default/production/_ext/504274921/plib_sercom7_usart.o
 .text.SERCOM7_USART_FrequencyGet
                0x00000000        0x8 build/default/production/_ext/504274921/plib_sercom7_usart.o
 .text.SERCOM7_USART_SerialSetup
                0x00000000      0x144 build/default/production/_ext/504274921/plib_sercom7_usart.o
 .text.SERCOM7_USART_ErrorGet
                0x00000000       0x10 build/default/production/_ext/504274921/plib_sercom7_usart.o
 .text.SERCOM7_USART_Enable
                0x00000000       0x20 build/default/production/_ext/504274921/plib_sercom7_usart.o
 .text.SERCOM7_USART_Disable
                0x00000000       0x20 build/default/production/_ext/504274921/plib_sercom7_usart.o
 .text.SERCOM7_USART_TransmitterEnable
                0x00000000       0x18 build/default/production/_ext/504274921/plib_sercom7_usart.o
 .text.SERCOM7_USART_TransmitterDisable
                0x00000000       0x18 build/default/production/_ext/504274921/plib_sercom7_usart.o
 .text.SERCOM7_USART_Write
                0x00000000       0x74 build/default/production/_ext/504274921/plib_sercom7_usart.o
 .text.SERCOM7_USART_WriteIsBusy
                0x00000000        0xc build/default/production/_ext/504274921/plib_sercom7_usart.o
 .text.SERCOM7_USART_WriteCountGet
                0x00000000        0xc build/default/production/_ext/504274921/plib_sercom7_usart.o
 .text.SERCOM7_USART_WriteCallbackRegister
                0x00000000        0xc build/default/production/_ext/504274921/plib_sercom7_usart.o
 .text.SERCOM7_USART_TransmitComplete
                0x00000000       0x10 build/default/production/_ext/504274921/plib_sercom7_usart.o
 .text.SERCOM7_USART_ReceiverEnable
                0x00000000       0x18 build/default/production/_ext/504274921/plib_sercom7_usart.o
 .text.SERCOM7_USART_ReceiverDisable
                0x00000000       0x18 build/default/production/_ext/504274921/plib_sercom7_usart.o
 .text.SERCOM7_USART_ReadIsBusy
                0x00000000        0xc build/default/production/_ext/504274921/plib_sercom7_usart.o
 .text.SERCOM7_USART_ReadCountGet
                0x00000000        0xc build/default/production/_ext/504274921/plib_sercom7_usart.o
 .text.SERCOM7_USART_ReadAbort
                0x00000000       0x28 build/default/production/_ext/504274921/plib_sercom7_usart.o
 .text          0x00000000        0x0 build/default/production/_ext/504274921/plib_sercom6_usart.o
 .data          0x00000000        0x0 build/default/production/_ext/504274921/plib_sercom6_usart.o
 .bss           0x00000000        0x0 build/default/production/_ext/504274921/plib_sercom6_usart.o
 .text.SERCOM6_USART_FrequencyGet
                0x00000000        0x8 build/default/production/_ext/504274921/plib_sercom6_usart.o
 .text.SERCOM6_USART_SerialSetup
                0x00000000      0x144 build/default/production/_ext/504274921/plib_sercom6_usart.o
 .text.SERCOM6_USART_ErrorGet
                0x00000000       0x10 build/default/production/_ext/504274921/plib_sercom6_usart.o
 .text.SERCOM6_USART_Enable
                0x00000000       0x20 build/default/production/_ext/504274921/plib_sercom6_usart.o
 .text.SERCOM6_USART_Disable
                0x00000000       0x20 build/default/production/_ext/504274921/plib_sercom6_usart.o
 .text.SERCOM6_USART_TransmitterEnable
                0x00000000       0x18 build/default/production/_ext/504274921/plib_sercom6_usart.o
 .text.SERCOM6_USART_TransmitterDisable
                0x00000000       0x18 build/default/production/_ext/504274921/plib_sercom6_usart.o
 .text.SERCOM6_USART_Write
                0x00000000       0x74 build/default/production/_ext/504274921/plib_sercom6_usart.o
 .text.SERCOM6_USART_WriteIsBusy
                0x00000000        0xc build/default/production/_ext/504274921/plib_sercom6_usart.o
 .text.SERCOM6_USART_WriteCountGet
                0x00000000        0xc build/default/production/_ext/504274921/plib_sercom6_usart.o
 .text.SERCOM6_USART_WriteCallbackRegister
                0x00000000        0xc build/default/production/_ext/504274921/plib_sercom6_usart.o
 .text.SERCOM6_USART_TransmitComplete
                0x00000000       0x10 build/default/production/_ext/504274921/plib_sercom6_usart.o
 .text.SERCOM6_USART_ReceiverEnable
                0x00000000       0x18 build/default/production/_ext/504274921/plib_sercom6_usart.o
 .text.SERCOM6_USART_ReceiverDisable
                0x00000000       0x18 build/default/production/_ext/504274921/plib_sercom6_usart.o
 .text.SERCOM6_USART_ReadIsBusy
                0x00000000        0xc build/default/production/_ext/504274921/plib_sercom6_usart.o
 .text.SERCOM6_USART_ReadCountGet
                0x00000000        0xc build/default/production/_ext/504274921/plib_sercom6_usart.o
 .text.SERCOM6_USART_ReadAbort
                0x00000000       0x28 build/default/production/_ext/504274921/plib_sercom6_usart.o
 .text          0x00000000        0x0 build/default/production/_ext/504274921/plib_sercom2_usart.o
 .data          0x00000000        0x0 build/default/production/_ext/504274921/plib_sercom2_usart.o
 .bss           0x00000000        0x0 build/default/production/_ext/504274921/plib_sercom2_usart.o
 .text.SERCOM2_USART_FrequencyGet
                0x00000000        0x8 build/default/production/_ext/504274921/plib_sercom2_usart.o
 .text.SERCOM2_USART_SerialSetup
                0x00000000      0x144 build/default/production/_ext/504274921/plib_sercom2_usart.o
 .text.SERCOM2_USART_ErrorGet
                0x00000000       0x10 build/default/production/_ext/504274921/plib_sercom2_usart.o
 .text.SERCOM2_USART_Enable
                0x00000000       0x20 build/default/production/_ext/504274921/plib_sercom2_usart.o
 .text.SERCOM2_USART_Disable
                0x00000000       0x20 build/default/production/_ext/504274921/plib_sercom2_usart.o
 .text.SERCOM2_USART_TransmitterEnable
                0x00000000       0x18 build/default/production/_ext/504274921/plib_sercom2_usart.o
 .text.SERCOM2_USART_TransmitterDisable
                0x00000000       0x18 build/default/production/_ext/504274921/plib_sercom2_usart.o
 .text.SERCOM2_USART_Write
                0x00000000       0x74 build/default/production/_ext/504274921/plib_sercom2_usart.o
 .text.SERCOM2_USART_WriteIsBusy
                0x00000000        0xc build/default/production/_ext/504274921/plib_sercom2_usart.o
 .text.SERCOM2_USART_WriteCountGet
                0x00000000        0xc build/default/production/_ext/504274921/plib_sercom2_usart.o
 .text.SERCOM2_USART_WriteCallbackRegister
                0x00000000        0xc build/default/production/_ext/504274921/plib_sercom2_usart.o
 .text.SERCOM2_USART_TransmitComplete
                0x00000000       0x10 build/default/production/_ext/504274921/plib_sercom2_usart.o
 .text.SERCOM2_USART_ReceiverEnable
                0x00000000       0x18 build/default/production/_ext/504274921/plib_sercom2_usart.o
 .text.SERCOM2_USART_ReceiverDisable
                0x00000000       0x18 build/default/production/_ext/504274921/plib_sercom2_usart.o
 .text.SERCOM2_USART_ReadIsBusy
                0x00000000        0xc build/default/production/_ext/504274921/plib_sercom2_usart.o
 .text.SERCOM2_USART_ReadCountGet
                0x00000000        0xc build/default/production/_ext/504274921/plib_sercom2_usart.o
 .text.SERCOM2_USART_ReadAbort
                0x00000000       0x28 build/default/production/_ext/504274921/plib_sercom2_usart.o
 .text          0x00000000        0x0 build/default/production/_ext/504274921/plib_sercom5_usart.o
 .data          0x00000000        0x0 build/default/production/_ext/504274921/plib_sercom5_usart.o
 .bss           0x00000000        0x0 build/default/production/_ext/504274921/plib_sercom5_usart.o
 .text.SERCOM5_USART_FrequencyGet
                0x00000000        0x8 build/default/production/_ext/504274921/plib_sercom5_usart.o
 .text.SERCOM5_USART_SerialSetup
                0x00000000      0x124 build/default/production/_ext/504274921/plib_sercom5_usart.o
 .text.SERCOM5_USART_ErrorGet
                0x00000000       0x1c build/default/production/_ext/504274921/plib_sercom5_usart.o
 .text.SERCOM5_USART_Enable
                0x00000000       0x20 build/default/production/_ext/504274921/plib_sercom5_usart.o
 .text.SERCOM5_USART_Disable
                0x00000000       0x20 build/default/production/_ext/504274921/plib_sercom5_usart.o
 .text.SERCOM5_USART_TransmitterEnable
                0x00000000       0x18 build/default/production/_ext/504274921/plib_sercom5_usart.o
 .text.SERCOM5_USART_TransmitterDisable
                0x00000000       0x18 build/default/production/_ext/504274921/plib_sercom5_usart.o
 .text.SERCOM5_USART_TransmitterIsReady
                0x00000000       0x10 build/default/production/_ext/504274921/plib_sercom5_usart.o
 .text.SERCOM5_USART_WriteByte
                0x00000000       0x18 build/default/production/_ext/504274921/plib_sercom5_usart.o
 .text.SERCOM5_USART_TransmitComplete
                0x00000000       0x10 build/default/production/_ext/504274921/plib_sercom5_usart.o
 .text.SERCOM5_USART_ReceiverEnable
                0x00000000       0x18 build/default/production/_ext/504274921/plib_sercom5_usart.o
 .text.SERCOM5_USART_ReceiverDisable
                0x00000000       0x18 build/default/production/_ext/504274921/plib_sercom5_usart.o
 .text.SERCOM5_USART_ReceiverIsReady
                0x00000000       0x10 build/default/production/_ext/504274921/plib_sercom5_usart.o
 .text.SERCOM5_USART_ReadByte
                0x00000000        0xc build/default/production/_ext/504274921/plib_sercom5_usart.o
 .text          0x00000000        0x0 build/default/production/_ext/829342655/plib_tc0.o
 .data          0x00000000        0x0 build/default/production/_ext/829342655/plib_tc0.o
 .bss           0x00000000        0x0 build/default/production/_ext/829342655/plib_tc0.o
 .text.TC0_CompareFrequencyGet
                0x00000000        0x8 build/default/production/_ext/829342655/plib_tc0.o
 .text.TC0_CompareCommandSet
                0x00000000       0x18 build/default/production/_ext/829342655/plib_tc0.o
 .text.TC0_Compare16bitCounterGet
                0x00000000       0x28 build/default/production/_ext/829342655/plib_tc0.o
 .text.TC0_Compare16bitCounterSet
                0x00000000       0x14 build/default/production/_ext/829342655/plib_tc0.o
 .text.TC0_Compare16bitPeriodGet
                0x00000000        0x6 build/default/production/_ext/829342655/plib_tc0.o
 .text.TC0_Compare16bitMatch0Set
                0x00000000       0x18 build/default/production/_ext/829342655/plib_tc0.o
 .text.TC0_Compare16bitMatch1Set
                0x00000000       0x18 build/default/production/_ext/829342655/plib_tc0.o
 .text.TC0_CompareStatusGet
                0x00000000       0x10 build/default/production/_ext/829342655/plib_tc0.o
 .text          0x00000000        0x0 build/default/production/_ext/829342655/plib_tc1.o
 .data          0x00000000        0x0 build/default/production/_ext/829342655/plib_tc1.o
 .bss           0x00000000        0x0 build/default/production/_ext/829342655/plib_tc1.o
 .text.TC1_CompareFrequencyGet
                0x00000000        0x8 build/default/production/_ext/829342655/plib_tc1.o
 .text.TC1_CompareCommandSet
                0x00000000       0x18 build/default/production/_ext/829342655/plib_tc1.o
 .text.TC1_Compare16bitCounterGet
                0x00000000       0x28 build/default/production/_ext/829342655/plib_tc1.o
 .text.TC1_Compare16bitCounterSet
                0x00000000       0x14 build/default/production/_ext/829342655/plib_tc1.o
 .text.TC1_Compare16bitPeriodGet
                0x00000000        0x6 build/default/production/_ext/829342655/plib_tc1.o
 .text.TC1_Compare16bitMatch0Set
                0x00000000       0x18 build/default/production/_ext/829342655/plib_tc1.o
 .text.TC1_Compare16bitMatch1Set
                0x00000000       0x18 build/default/production/_ext/829342655/plib_tc1.o
 .text.TC1_CompareStatusGet
                0x00000000       0x10 build/default/production/_ext/829342655/plib_tc1.o
 .text          0x00000000        0x0 build/default/production/_ext/829342655/plib_tc5.o
 .data          0x00000000        0x0 build/default/production/_ext/829342655/plib_tc5.o
 .bss           0x00000000        0x0 build/default/production/_ext/829342655/plib_tc5.o
 .text.TC5_CompareFrequencyGet
                0x00000000        0x8 build/default/production/_ext/829342655/plib_tc5.o
 .text.TC5_CompareCommandSet
                0x00000000       0x18 build/default/production/_ext/829342655/plib_tc5.o
 .text.TC5_Compare16bitCounterGet
                0x00000000       0x28 build/default/production/_ext/829342655/plib_tc5.o
 .text.TC5_Compare16bitCounterSet
                0x00000000       0x14 build/default/production/_ext/829342655/plib_tc5.o
 .text.TC5_Compare16bitPeriodGet
                0x00000000        0x6 build/default/production/_ext/829342655/plib_tc5.o
 .text.TC5_Compare16bitMatch0Set
                0x00000000       0x18 build/default/production/_ext/829342655/plib_tc5.o
 .text.TC5_Compare16bitMatch1Set
                0x00000000       0x18 build/default/production/_ext/829342655/plib_tc5.o
 .text.TC5_CompareStatusGet
                0x00000000       0x10 build/default/production/_ext/829342655/plib_tc5.o
 .text          0x00000000        0x0 build/default/production/_ext/60181570/plib_tcc4.o
 .data          0x00000000        0x0 build/default/production/_ext/60181570/plib_tcc4.o
 .bss           0x00000000        0x0 build/default/production/_ext/60181570/plib_tcc4.o
 .text.TCC4_PWM16bitPeriodSet
                0x00000000       0x18 build/default/production/_ext/60181570/plib_tcc4.o
 .text.TCC4_PWM16bitPeriodGet
                0x00000000       0x18 build/default/production/_ext/60181570/plib_tcc4.o
 .text.TCC4_PWM16bitCounterGet
                0x00000000       0x28 build/default/production/_ext/60181570/plib_tcc4.o
 .text.TCC4_PWM16bitCounterSet
                0x00000000       0x14 build/default/production/_ext/60181570/plib_tcc4.o
 .text.TCC4_PWMForceUpdate
                0x00000000       0x18 build/default/production/_ext/60181570/plib_tcc4.o
 .text.TCC4_PWMPeriodInterruptEnable
                0x00000000        0xc build/default/production/_ext/60181570/plib_tcc4.o
 .text.TCC4_PWMPeriodInterruptDisable
                0x00000000        0xc build/default/production/_ext/60181570/plib_tcc4.o
 .text.TCC4_PWMInterruptStatusGet
                0x00000000       0x10 build/default/production/_ext/60181570/plib_tcc4.o
 .text          0x00000000        0x0 build/default/production/_ext/163028504/xc32_monitor.o
 .data          0x00000000        0x0 build/default/production/_ext/163028504/xc32_monitor.o
 .bss           0x00000000        0x0 build/default/production/_ext/163028504/xc32_monitor.o
 .text          0x00000000        0x0 build/default/production/_ext/1171490990/freertos_hooks.o
 .data          0x00000000        0x0 build/default/production/_ext/1171490990/freertos_hooks.o
 .bss           0x00000000        0x0 build/default/production/_ext/1171490990/freertos_hooks.o
 .text.vApplicationIdleHook
                0x00000000        0x2 build/default/production/_ext/1171490990/freertos_hooks.o
 .text.vApplicationTickHook
                0x00000000        0x2 build/default/production/_ext/1171490990/freertos_hooks.o
 .text.vAssertCalled
                0x00000000       0x1c build/default/production/_ext/1171490990/freertos_hooks.o
 .text          0x00000000        0x0 build/default/production/_ext/1171490990/libc_syscalls.o
 .data          0x00000000        0x0 build/default/production/_ext/1171490990/libc_syscalls.o
 .bss           0x00000000        0x0 build/default/production/_ext/1171490990/libc_syscalls.o
 .text._exit    0x00000000        0x2 build/default/production/_ext/1171490990/libc_syscalls.o
 .debug_info    0x00000000      0x30e build/default/production/_ext/1171490990/libc_syscalls.o
 .debug_abbrev  0x00000000       0x52 build/default/production/_ext/1171490990/libc_syscalls.o
 .debug_loc     0x00000000       0x15 build/default/production/_ext/1171490990/libc_syscalls.o
 .debug_aranges
                0x00000000       0x20 build/default/production/_ext/1171490990/libc_syscalls.o
 .debug_ranges  0x00000000       0x10 build/default/production/_ext/1171490990/libc_syscalls.o
 .debug_line    0x00000000       0x5b build/default/production/_ext/1171490990/libc_syscalls.o
 .debug_str     0x00000000        0x0 build/default/production/_ext/1171490990/libc_syscalls.o
 .comment       0x00000000       0x2c build/default/production/_ext/1171490990/libc_syscalls.o
 .debug_frame   0x00000000       0x20 build/default/production/_ext/1171490990/libc_syscalls.o
 .ARM.attributes
                0x00000000       0x34 build/default/production/_ext/1171490990/libc_syscalls.o
 .text          0x00000000        0x0 build/default/production/_ext/1171490990/startup_xc32.o
 .data          0x00000000        0x0 build/default/production/_ext/1171490990/startup_xc32.o
 .bss           0x00000000        0x0 build/default/production/_ext/1171490990/startup_xc32.o
 .text          0x00000000        0x0 build/default/production/_ext/1171490990/interrupts.o
 .data          0x00000000        0x0 build/default/production/_ext/1171490990/interrupts.o
 .bss           0x00000000        0x0 build/default/production/_ext/1171490990/interrupts.o
 .text          0x00000000        0x0 build/default/production/_ext/1171490990/exceptions.o
 .data          0x00000000        0x0 build/default/production/_ext/1171490990/exceptions.o
 .bss           0x00000000        0x0 build/default/production/_ext/1171490990/exceptions.o
 .text          0x00000000        0x0 build/default/production/_ext/1171490990/initialization.o
 .data          0x00000000        0x0 build/default/production/_ext/1171490990/initialization.o
 .bss           0x00000000        0x0 build/default/production/_ext/1171490990/initialization.o
 .text          0x00000000        0x0 build/default/production/_ext/246609638/port.o
 .data          0x00000000        0x0 build/default/production/_ext/246609638/port.o
 .bss           0x00000000        0x0 build/default/production/_ext/246609638/port.o
 .text.vPortEndScheduler
                0x00000000        0x2 build/default/production/_ext/246609638/port.o
 .text          0x00000000        0x0 build/default/production/_ext/1665200909/heap_4.o
 .data          0x00000000        0x0 build/default/production/_ext/1665200909/heap_4.o
 .bss           0x00000000        0x0 build/default/production/_ext/1665200909/heap_4.o
 .text.xPortGetFreeHeapSize
                0x00000000        0xc build/default/production/_ext/1665200909/heap_4.o
 .text.xPortGetMinimumEverFreeHeapSize
                0x00000000        0xc build/default/production/_ext/1665200909/heap_4.o
 .text.vPortInitialiseBlocks
                0x00000000        0x2 build/default/production/_ext/1665200909/heap_4.o
 .text.pvPortCalloc
                0x00000000       0x2a build/default/production/_ext/1665200909/heap_4.o
 .text.vPortGetHeapStats
                0x00000000       0x8c build/default/production/_ext/1665200909/heap_4.o
 .text          0x00000000        0x0 build/default/production/_ext/404212886/croutine.o
 .data          0x00000000        0x0 build/default/production/_ext/404212886/croutine.o
 .bss           0x00000000        0x0 build/default/production/_ext/404212886/croutine.o
 .debug_info    0x00000000      0x2ed build/default/production/_ext/404212886/croutine.o
 .debug_abbrev  0x00000000       0x1b build/default/production/_ext/404212886/croutine.o
 .debug_aranges
                0x00000000       0x18 build/default/production/_ext/404212886/croutine.o
 .debug_line    0x00000000       0x1d build/default/production/_ext/404212886/croutine.o
 .debug_str     0x00000000        0x0 build/default/production/_ext/404212886/croutine.o
 .comment       0x00000000       0x2c build/default/production/_ext/404212886/croutine.o
 .ARM.attributes
                0x00000000       0x39 build/default/production/_ext/404212886/croutine.o
 .text          0x00000000        0x0 build/default/production/_ext/404212886/list.o
 .data          0x00000000        0x0 build/default/production/_ext/404212886/list.o
 .bss           0x00000000        0x0 build/default/production/_ext/404212886/list.o
 .text          0x00000000        0x0 build/default/production/_ext/404212886/queue.o
 .data          0x00000000        0x0 build/default/production/_ext/404212886/queue.o
 .bss           0x00000000        0x0 build/default/production/_ext/404212886/queue.o
 .text.xQueueCreateCountingSemaphore
                0x00000000       0x26 build/default/production/_ext/404212886/queue.o
 .text.xQueueCreateMutex
                0x00000000       0x24 build/default/production/_ext/404212886/queue.o
 .text.xQueueGiveFromISR
                0x00000000       0x72 build/default/production/_ext/404212886/queue.o
 .text.xQueueSemaphoreTake
                0x00000000      0x154 build/default/production/_ext/404212886/queue.o
 .text.xQueuePeek
                0x00000000      0x10c build/default/production/_ext/404212886/queue.o
 .text.xQueueReceiveFromISR
                0x00000000       0x7e build/default/production/_ext/404212886/queue.o
 .text.xQueuePeekFromISR
                0x00000000       0x30 build/default/production/_ext/404212886/queue.o
 .text.uxQueueMessagesWaiting
                0x00000000       0x12 build/default/production/_ext/404212886/queue.o
 .text.uxQueueSpacesAvailable
                0x00000000       0x16 build/default/production/_ext/404212886/queue.o
 .text.uxQueueMessagesWaitingFromISR
                0x00000000        0x4 build/default/production/_ext/404212886/queue.o
 .text.vQueueDelete
                0x00000000        0x8 build/default/production/_ext/404212886/queue.o
 .text.xQueueIsQueueEmptyFromISR
                0x00000000        0xa build/default/production/_ext/404212886/queue.o
 .text.xQueueIsQueueFullFromISR
                0x00000000        0xe build/default/production/_ext/404212886/queue.o
 .text          0x00000000        0x0 build/default/production/_ext/404212886/stream_buffer.o
 .data          0x00000000        0x0 build/default/production/_ext/404212886/stream_buffer.o
 .bss           0x00000000        0x0 build/default/production/_ext/404212886/stream_buffer.o
 .text.prvBytesInBuffer
                0x00000000       0x12 build/default/production/_ext/404212886/stream_buffer.o
 .text.prvWriteBytesToBuffer
                0x00000000       0x40 build/default/production/_ext/404212886/stream_buffer.o
 .text.prvWriteMessageToBuffer
                0x00000000       0x4e build/default/production/_ext/404212886/stream_buffer.o
 .text.prvReadBytesFromBuffer
                0x00000000       0x42 build/default/production/_ext/404212886/stream_buffer.o
 .text.prvReadMessageFromBuffer
                0x00000000       0x4e build/default/production/_ext/404212886/stream_buffer.o
 .text.xStreamBufferGenericCreate
                0x00000000       0x42 build/default/production/_ext/404212886/stream_buffer.o
 .text.vStreamBufferDelete
                0x00000000       0x1a build/default/production/_ext/404212886/stream_buffer.o
 .text.xStreamBufferReset
                0x00000000       0x44 build/default/production/_ext/404212886/stream_buffer.o
 .text.xStreamBufferSetTriggerLevel
                0x00000000       0x14 build/default/production/_ext/404212886/stream_buffer.o
 .text.xStreamBufferSpacesAvailable
                0x00000000       0x20 build/default/production/_ext/404212886/stream_buffer.o
 .text.xStreamBufferBytesAvailable
                0x00000000        0x8 build/default/production/_ext/404212886/stream_buffer.o
 .text.xStreamBufferSend
                0x00000000       0xd8 build/default/production/_ext/404212886/stream_buffer.o
 .text.xStreamBufferSendFromISR
                0x00000000       0x78 build/default/production/_ext/404212886/stream_buffer.o
 .text.xStreamBufferReceive
                0x00000000       0xa4 build/default/production/_ext/404212886/stream_buffer.o
 .text.xStreamBufferNextMessageLengthBytes
                0x00000000       0x32 build/default/production/_ext/404212886/stream_buffer.o
 .text.xStreamBufferReceiveFromISR
                0x00000000       0x6c build/default/production/_ext/404212886/stream_buffer.o
 .text.xStreamBufferIsEmpty
                0x00000000        0xe build/default/production/_ext/404212886/stream_buffer.o
 .text.xStreamBufferIsFull
                0x00000000       0x18 build/default/production/_ext/404212886/stream_buffer.o
 .text.xStreamBufferSendCompletedFromISR
                0x00000000       0x40 build/default/production/_ext/404212886/stream_buffer.o
 .text.xStreamBufferReceiveCompletedFromISR
                0x00000000       0x40 build/default/production/_ext/404212886/stream_buffer.o
 .debug_info    0x00000000     0x1d23 build/default/production/_ext/404212886/stream_buffer.o
 .debug_abbrev  0x00000000      0x318 build/default/production/_ext/404212886/stream_buffer.o
 .debug_loc     0x00000000     0x1a59 build/default/production/_ext/404212886/stream_buffer.o
 .debug_aranges
                0x00000000       0xb8 build/default/production/_ext/404212886/stream_buffer.o
 .debug_ranges  0x00000000       0xd0 build/default/production/_ext/404212886/stream_buffer.o
 .debug_line    0x00000000      0xab9 build/default/production/_ext/404212886/stream_buffer.o
 .debug_str     0x00000000      0x267 build/default/production/_ext/404212886/stream_buffer.o
 .comment       0x00000000       0x2c build/default/production/_ext/404212886/stream_buffer.o
 .debug_frame   0x00000000      0x27c build/default/production/_ext/404212886/stream_buffer.o
 .ARM.attributes
                0x00000000       0x34 build/default/production/_ext/404212886/stream_buffer.o
 .text          0x00000000        0x0 build/default/production/_ext/404212886/event_groups.o
 .data          0x00000000        0x0 build/default/production/_ext/404212886/event_groups.o
 .bss           0x00000000        0x0 build/default/production/_ext/404212886/event_groups.o
 .text.xEventGroupCreate
                0x00000000       0x1a build/default/production/_ext/404212886/event_groups.o
 .text.xEventGroupWaitBits
                0x00000000       0xc0 build/default/production/_ext/404212886/event_groups.o
 .text.xEventGroupClearBits
                0x00000000       0x1a build/default/production/_ext/404212886/event_groups.o
 .text.xEventGroupGetBitsFromISR
                0x00000000       0x1c build/default/production/_ext/404212886/event_groups.o
 .text.xEventGroupSetBits
                0x00000000       0x66 build/default/production/_ext/404212886/event_groups.o
 .text.xEventGroupSync
                0x00000000       0x90 build/default/production/_ext/404212886/event_groups.o
 .text.vEventGroupDelete
                0x00000000       0x2a build/default/production/_ext/404212886/event_groups.o
 .text.vEventGroupSetBitsCallback
                0x00000000        0x8 build/default/production/_ext/404212886/event_groups.o
 .text.vEventGroupClearBitsCallback
                0x00000000        0x8 build/default/production/_ext/404212886/event_groups.o
 .debug_info    0x00000000      0xf6c build/default/production/_ext/404212886/event_groups.o
 .debug_abbrev  0x00000000      0x2ef build/default/production/_ext/404212886/event_groups.o
 .debug_loc     0x00000000      0xac5 build/default/production/_ext/404212886/event_groups.o
 .debug_aranges
                0x00000000       0x60 build/default/production/_ext/404212886/event_groups.o
 .debug_ranges  0x00000000       0x98 build/default/production/_ext/404212886/event_groups.o
 .debug_line    0x00000000      0x5e0 build/default/production/_ext/404212886/event_groups.o
 .debug_str     0x00000000      0x1ac build/default/production/_ext/404212886/event_groups.o
 .comment       0x00000000       0x2c build/default/production/_ext/404212886/event_groups.o
 .debug_frame   0x00000000      0x100 build/default/production/_ext/404212886/event_groups.o
 .ARM.attributes
                0x00000000       0x34 build/default/production/_ext/404212886/event_groups.o
 .text          0x00000000        0x0 build/default/production/_ext/404212886/timers.o
 .data          0x00000000        0x0 build/default/production/_ext/404212886/timers.o
 .bss           0x00000000        0x0 build/default/production/_ext/404212886/timers.o
 .text.xTimerGetTimerDaemonTaskHandle
                0x00000000        0xc build/default/production/_ext/404212886/timers.o
 .text.xTimerGetPeriod
                0x00000000        0x4 build/default/production/_ext/404212886/timers.o
 .text.vTimerSetReloadMode
                0x00000000       0x28 build/default/production/_ext/404212886/timers.o
 .text.xTimerGetReloadMode
                0x00000000       0x18 build/default/production/_ext/404212886/timers.o
 .text.uxTimerGetReloadMode
                0x00000000        0x8 build/default/production/_ext/404212886/timers.o
 .text.xTimerGetExpiryTime
                0x00000000        0x4 build/default/production/_ext/404212886/timers.o
 .text.pcTimerGetName
                0x00000000        0x4 build/default/production/_ext/404212886/timers.o
 .text.xTimerIsTimerActive
                0x00000000       0x18 build/default/production/_ext/404212886/timers.o
 .text.pvTimerGetTimerID
                0x00000000       0x12 build/default/production/_ext/404212886/timers.o
 .text.vTimerSetTimerID
                0x00000000       0x12 build/default/production/_ext/404212886/timers.o
 .text          0x00000000        0x0 build/default/production/_ext/404212886/FreeRTOS_tasks.o
 .data          0x00000000        0x0 build/default/production/_ext/404212886/FreeRTOS_tasks.o
 .bss           0x00000000        0x0 build/default/production/_ext/404212886/FreeRTOS_tasks.o
 .text.vTaskDelete
                0x00000000       0xd4 build/default/production/_ext/404212886/FreeRTOS_tasks.o
 .text.uxTaskPriorityGet
                0x00000000       0x20 build/default/production/_ext/404212886/FreeRTOS_tasks.o
 .text.uxTaskPriorityGetFromISR
                0x00000000       0x28 build/default/production/_ext/404212886/FreeRTOS_tasks.o
 .text.vTaskPrioritySet
                0x00000000       0xec build/default/production/_ext/404212886/FreeRTOS_tasks.o
 .text.vTaskEndScheduler
                0x00000000       0x24 build/default/production/_ext/404212886/FreeRTOS_tasks.o
 .text.xTaskGetTickCountFromISR
                0x00000000        0xc build/default/production/_ext/404212886/FreeRTOS_tasks.o
 .text.pcTaskGetName
                0x00000000       0x14 build/default/production/_ext/404212886/FreeRTOS_tasks.o
 .text.xTaskDelayUntil
                0x00000000       0x6c build/default/production/_ext/404212886/FreeRTOS_tasks.o
 .text.xTaskCatchUpTicks
                0x00000000       0x24 build/default/production/_ext/404212886/FreeRTOS_tasks.o
 .text.vTaskPlaceOnUnorderedEventList
                0x00000000       0x3c build/default/production/_ext/404212886/FreeRTOS_tasks.o
 .text.vTaskRemoveFromUnorderedEventList
                0x00000000       0xb0 build/default/production/_ext/404212886/FreeRTOS_tasks.o
 .text.vTaskSetTimeOutState
                0x00000000       0x24 build/default/production/_ext/404212886/FreeRTOS_tasks.o
 .text.xTaskGetCurrentTaskHandle
                0x00000000        0xc build/default/production/_ext/404212886/FreeRTOS_tasks.o
 .text.xTaskPriorityInherit
                0x00000000       0xc4 build/default/production/_ext/404212886/FreeRTOS_tasks.o
 .text.vTaskPriorityDisinheritAfterTimeout
                0x00000000       0x9c build/default/production/_ext/404212886/FreeRTOS_tasks.o
 .text.uxTaskResetEventItemValue
                0x00000000       0x18 build/default/production/_ext/404212886/FreeRTOS_tasks.o
 .text.pvTaskIncrementMutexHeldCount
                0x00000000       0x1c build/default/production/_ext/404212886/FreeRTOS_tasks.o
 .text.ulTaskGenericNotifyTake
                0x00000000       0x98 build/default/production/_ext/404212886/FreeRTOS_tasks.o
 .text.xTaskGenericNotifyWait
                0x00000000       0xb4 build/default/production/_ext/404212886/FreeRTOS_tasks.o
 .text.xTaskGenericNotify
                0x00000000      0x118 build/default/production/_ext/404212886/FreeRTOS_tasks.o
 .text.xTaskGenericNotifyFromISR
                0x00000000      0x140 build/default/production/_ext/404212886/FreeRTOS_tasks.o
 .text.vTaskGenericNotifyGiveFromISR
                0x00000000       0xf0 build/default/production/_ext/404212886/FreeRTOS_tasks.o
 .text.xTaskGenericNotifyStateClear
                0x00000000       0x38 build/default/production/_ext/404212886/FreeRTOS_tasks.o
 .text.ulTaskGenericNotifyValueClear
                0x00000000       0x30 build/default/production/_ext/404212886/FreeRTOS_tasks.o
 .text          0x00000000        0x0 build/default/production/_ext/1360937237/main.o
 .data          0x00000000        0x0 build/default/production/_ext/1360937237/main.o
 .bss           0x00000000        0x0 build/default/production/_ext/1360937237/main.o
 .text.map      0x00000000       0x1a build/default/production/_ext/1360937237/main.o
 .bss.ac_dc_meter_q
                0x00000000        0x4 build/default/production/_ext/1360937237/main.o
 .bss.esp_send_q
                0x00000000        0x4 build/default/production/_ext/1360937237/main.o
 .bss.hmi_q     0x00000000        0x4 build/default/production/_ext/1360937237/main.o
 .bss.rgb1_q    0x00000000        0x4 build/default/production/_ext/1360937237/main.o
 .bss.rgb_q     0x00000000        0x4 build/default/production/_ext/1360937237/main.o
 .text          0x00000000        0x0 build/default/production/_ext/504274921/plib_sercom1_usart.o
 .data          0x00000000        0x0 build/default/production/_ext/504274921/plib_sercom1_usart.o
 .bss           0x00000000        0x0 build/default/production/_ext/504274921/plib_sercom1_usart.o
 .text.SERCOM1_USART_FrequencyGet
                0x00000000        0x8 build/default/production/_ext/504274921/plib_sercom1_usart.o
 .text.SERCOM1_USART_SerialSetup
                0x00000000      0x144 build/default/production/_ext/504274921/plib_sercom1_usart.o
 .text.SERCOM1_USART_ErrorGet
                0x00000000       0x10 build/default/production/_ext/504274921/plib_sercom1_usart.o
 .text.SERCOM1_USART_Enable
                0x00000000       0x20 build/default/production/_ext/504274921/plib_sercom1_usart.o
 .text.SERCOM1_USART_Disable
                0x00000000       0x20 build/default/production/_ext/504274921/plib_sercom1_usart.o
 .text.SERCOM1_USART_TransmitterEnable
                0x00000000       0x18 build/default/production/_ext/504274921/plib_sercom1_usart.o
 .text.SERCOM1_USART_TransmitterDisable
                0x00000000       0x18 build/default/production/_ext/504274921/plib_sercom1_usart.o
 .text.SERCOM1_USART_WriteIsBusy
                0x00000000        0xc build/default/production/_ext/504274921/plib_sercom1_usart.o
 .text.SERCOM1_USART_WriteCountGet
                0x00000000        0xc build/default/production/_ext/504274921/plib_sercom1_usart.o
 .text.SERCOM1_USART_WriteCallbackRegister
                0x00000000        0xc build/default/production/_ext/504274921/plib_sercom1_usart.o
 .text.SERCOM1_USART_ReceiverEnable
                0x00000000       0x18 build/default/production/_ext/504274921/plib_sercom1_usart.o
 .text.SERCOM1_USART_ReceiverDisable
                0x00000000       0x18 build/default/production/_ext/504274921/plib_sercom1_usart.o
 .text.SERCOM1_USART_ReadIsBusy
                0x00000000        0xc build/default/production/_ext/504274921/plib_sercom1_usart.o
 .text.SERCOM1_USART_ReadCountGet
                0x00000000        0xc build/default/production/_ext/504274921/plib_sercom1_usart.o
 .text.SERCOM1_USART_ReadAbort
                0x00000000       0x28 build/default/production/_ext/504274921/plib_sercom1_usart.o
 .text          0x00000000        0x0 c:/program files/microchip/xc32/v4.21/bin/bin/../../lib/gcc/pic32c/8.3.1/../../../../pic32c/lib/thumb/v7e-m+fp/hard\libpic32c.a(data_init_wrapper.o)
 .data          0x00000000        0x0 c:/program files/microchip/xc32/v4.21/bin/bin/../../lib/gcc/pic32c/8.3.1/../../../../pic32c/lib/thumb/v7e-m+fp/hard\libpic32c.a(data_init_wrapper.o)
 .bss           0x00000000        0x0 c:/program files/microchip/xc32/v4.21/bin/bin/../../lib/gcc/pic32c/8.3.1/../../../../pic32c/lib/thumb/v7e-m+fp/hard\libpic32c.a(data_init_wrapper.o)
 .xc_stack_usage
                0x00000000       0x2a c:/program files/microchip/xc32/v4.21/bin/bin/../../lib/gcc/pic32c/8.3.1/../../../../pic32c/lib/thumb/v7e-m+fp/hard\libpic32c.a(data_init_wrapper.o)
 .xc_stack_usage.hdr
                0x00000000        0xe c:/program files/microchip/xc32/v4.21/bin/bin/../../lib/gcc/pic32c/8.3.1/../../../../pic32c/lib/thumb/v7e-m+fp/hard\libpic32c.a(data_init_wrapper.o)
 .text          0x00000000        0x0 c:/program files/microchip/xc32/v4.21/bin/bin/../../lib/gcc/pic32c/8.3.1/../../../../pic32c/lib/thumb/v7e-m+fp/hard\libpic32c.a(data_init_0_1.o)
 .data          0x00000000        0x0 c:/program files/microchip/xc32/v4.21/bin/bin/../../lib/gcc/pic32c/8.3.1/../../../../pic32c/lib/thumb/v7e-m+fp/hard\libpic32c.a(data_init_0_1.o)
 .xc_stack_usage
                0x00000000       0x2f c:/program files/microchip/xc32/v4.21/bin/bin/../../lib/gcc/pic32c/8.3.1/../../../../pic32c/lib/thumb/v7e-m+fp/hard\libpic32c.a(data_init_0_1.o)
 .xc_stack_usage.hdr
                0x00000000        0xe c:/program files/microchip/xc32/v4.21/bin/bin/../../lib/gcc/pic32c/8.3.1/../../../../pic32c/lib/thumb/v7e-m+fp/hard\libpic32c.a(data_init_0_1.o)
 .xc_stack_usage.hdr
                0x00000000        0xe c:/program files/microchip/xc32/v4.21/bin/bin/../../lib/gcc/pic32c/8.3.1/../../../../pic32c/lib/thumb/v7e-m+fp/hard\libm-emfloat.a(__aeabi_dsub.o)
 .xc_stack_usage
                0x00000000       0x1a c:/program files/microchip/xc32/v4.21/bin/bin/../../lib/gcc/pic32c/8.3.1/../../../../pic32c/lib/thumb/v7e-m+fp/hard\libm-emfloat.a(__aeabi_dsub.o)
 .xc_stack_usage.hdr
                0x00000000        0xe c:/program files/microchip/xc32/v4.21/bin/bin/../../lib/gcc/pic32c/8.3.1/../../../../pic32c/lib/thumb/v7e-m+fp/hard\libm-emfloat.a(__aeabi_dmul.o)
 .xc_stack_usage
                0x00000000       0x1a c:/program files/microchip/xc32/v4.21/bin/bin/../../lib/gcc/pic32c/8.3.1/../../../../pic32c/lib/thumb/v7e-m+fp/hard\libm-emfloat.a(__aeabi_dmul.o)
 .xc_stack_usage.hdr
                0x00000000        0xe c:/program files/microchip/xc32/v4.21/bin/bin/../../lib/gcc/pic32c/8.3.1/../../../../pic32c/lib/thumb/v7e-m+fp/hard\libm-emfloat.a(__aeabi_ddiv.o)
 .xc_stack_usage
                0x00000000       0x1a c:/program files/microchip/xc32/v4.21/bin/bin/../../lib/gcc/pic32c/8.3.1/../../../../pic32c/lib/thumb/v7e-m+fp/hard\libm-emfloat.a(__aeabi_ddiv.o)
 .xc_stack_usage.hdr
                0x00000000        0xe c:/program files/microchip/xc32/v4.21/bin/bin/../../lib/gcc/pic32c/8.3.1/../../../../pic32c/lib/thumb/v7e-m+fp/hard\libm-emfloat.a(__aeabi_f2d.o)
 .xc_stack_usage
                0x00000000       0x19 c:/program files/microchip/xc32/v4.21/bin/bin/../../lib/gcc/pic32c/8.3.1/../../../../pic32c/lib/thumb/v7e-m+fp/hard\libm-emfloat.a(__aeabi_f2d.o)
 .xc_stack_usage.hdr
                0x00000000        0xe c:/program files/microchip/xc32/v4.21/bin/bin/../../lib/gcc/pic32c/8.3.1/../../../../pic32c/lib/thumb/v7e-m+fp/hard\libm-emfloat.a(__aeabi_d2f.o)
 .xc_stack_usage
                0x00000000       0x19 c:/program files/microchip/xc32/v4.21/bin/bin/../../lib/gcc/pic32c/8.3.1/../../../../pic32c/lib/thumb/v7e-m+fp/hard\libm-emfloat.a(__aeabi_d2f.o)
 .xc_stack_usage.hdr
                0x00000000        0xe c:/program files/microchip/xc32/v4.21/bin/bin/../../lib/gcc/pic32c/8.3.1/../../../../pic32c/lib/thumb/v7e-m+fp/hard\libm-emfloat.a(__aeabi_dadd.o)
 .xc_stack_usage
                0x00000000       0x1a c:/program files/microchip/xc32/v4.21/bin/bin/../../lib/gcc/pic32c/8.3.1/../../../../pic32c/lib/thumb/v7e-m+fp/hard\libm-emfloat.a(__aeabi_dadd.o)
 .text          0x00000000        0x0 c:/program files/microchip/xc32/v4.21/bin/bin/../../lib/gcc/pic32c/8.3.1/../../../../pic32c/lib/thumb/v7e-m+fp/hard\libc-musl.a(__libc_start_main.o)
 .data          0x00000000        0x0 c:/program files/microchip/xc32/v4.21/bin/bin/../../lib/gcc/pic32c/8.3.1/../../../../pic32c/lib/thumb/v7e-m+fp/hard\libc-musl.a(__libc_start_main.o)
 .bss           0x00000000        0x0 c:/program files/microchip/xc32/v4.21/bin/bin/../../lib/gcc/pic32c/8.3.1/../../../../pic32c/lib/thumb/v7e-m+fp/hard\libc-musl.a(__libc_start_main.o)
 .xc_stack_usage
                0x00000000       0x34 c:/program files/microchip/xc32/v4.21/bin/bin/../../lib/gcc/pic32c/8.3.1/../../../../pic32c/lib/thumb/v7e-m+fp/hard\libc-musl.a(__libc_start_main.o)
 .xc_stack_usage.hdr
                0x00000000        0xe c:/program files/microchip/xc32/v4.21/bin/bin/../../lib/gcc/pic32c/8.3.1/../../../../pic32c/lib/thumb/v7e-m+fp/hard\libc-musl.a(__libc_start_main.o)
 .text          0x00000000        0x0 c:/program files/microchip/xc32/v4.21/bin/bin/../../lib/gcc/pic32c/8.3.1/../../../../pic32c/lib/thumb/v7e-m+fp/hard\libc-musl.a(libc.o)
 .data          0x00000000        0x0 c:/program files/microchip/xc32/v4.21/bin/bin/../../lib/gcc/pic32c/8.3.1/../../../../pic32c/lib/thumb/v7e-m+fp/hard\libc-musl.a(libc.o)
 .xc_stack_usage.hdr
                0x00000000        0xe c:/program files/microchip/xc32/v4.21/bin/bin/../../lib/gcc/pic32c/8.3.1/../../../../pic32c/lib/thumb/v7e-m+fp/hard\libc-musl.a(libc.o)
 .text          0x00000000        0x0 c:/program files/microchip/xc32/v4.21/bin/bin/../../lib/gcc/pic32c/8.3.1/../../../../pic32c/lib/thumb/v7e-m+fp/hard\libc-musl.a(__sio_printf_dfoux.o)
 .data          0x00000000        0x0 c:/program files/microchip/xc32/v4.21/bin/bin/../../lib/gcc/pic32c/8.3.1/../../../../pic32c/lib/thumb/v7e-m+fp/hard\libc-musl.a(__sio_printf_dfoux.o)
 .bss           0x00000000        0x0 c:/program files/microchip/xc32/v4.21/bin/bin/../../lib/gcc/pic32c/8.3.1/../../../../pic32c/lib/thumb/v7e-m+fp/hard\libc-musl.a(__sio_printf_dfoux.o)
 .xc_stack_usage
                0x00000000       0x3b c:/program files/microchip/xc32/v4.21/bin/bin/../../lib/gcc/pic32c/8.3.1/../../../../pic32c/lib/thumb/v7e-m+fp/hard\libc-musl.a(__sio_printf_dfoux.o)
 .text.__sio_printf_dfoux
                0x00000000       0x2a c:/program files/microchip/xc32/v4.21/bin/bin/../../lib/gcc/pic32c/8.3.1/../../../../pic32c/lib/thumb/v7e-m+fp/hard\libc-musl.a(__sio_printf_dfoux.o)
 .xc_stack_usage.hdr
                0x00000000        0xe c:/program files/microchip/xc32/v4.21/bin/bin/../../lib/gcc/pic32c/8.3.1/../../../../pic32c/lib/thumb/v7e-m+fp/hard\libc-musl.a(__sio_printf_dfoux.o)
 .text          0x00000000        0x0 c:/program files/microchip/xc32/v4.21/bin/bin/../../lib/gcc/pic32c/8.3.1/../../../../pic32c/lib/thumb/v7e-m+fp/hard\libc-musl.a(__fmt_d.o)
 .data          0x00000000        0x0 c:/program files/microchip/xc32/v4.21/bin/bin/../../lib/gcc/pic32c/8.3.1/../../../../pic32c/lib/thumb/v7e-m+fp/hard\libc-musl.a(__fmt_d.o)
 .bss           0x00000000        0x0 c:/program files/microchip/xc32/v4.21/bin/bin/../../lib/gcc/pic32c/8.3.1/../../../../pic32c/lib/thumb/v7e-m+fp/hard\libc-musl.a(__fmt_d.o)
 .xc_stack_usage
                0x00000000       0x15 c:/program files/microchip/xc32/v4.21/bin/bin/../../lib/gcc/pic32c/8.3.1/../../../../pic32c/lib/thumb/v7e-m+fp/hard\libc-musl.a(__fmt_d.o)
 .xc_stack_usage.hdr
                0x00000000        0xe c:/program files/microchip/xc32/v4.21/bin/bin/../../lib/gcc/pic32c/8.3.1/../../../../pic32c/lib/thumb/v7e-m+fp/hard\libc-musl.a(__fmt_d.o)
 .text          0x00000000        0x0 c:/program files/microchip/xc32/v4.21/bin/bin/../../lib/gcc/pic32c/8.3.1/../../../../pic32c/lib/thumb/v7e-m+fp/hard\libc-musl.a(__fmt_fp.o)
 .data          0x00000000        0x0 c:/program files/microchip/xc32/v4.21/bin/bin/../../lib/gcc/pic32c/8.3.1/../../../../pic32c/lib/thumb/v7e-m+fp/hard\libc-musl.a(__fmt_fp.o)
 .bss           0x00000000        0x0 c:/program files/microchip/xc32/v4.21/bin/bin/../../lib/gcc/pic32c/8.3.1/../../../../pic32c/lib/thumb/v7e-m+fp/hard\libc-musl.a(__fmt_fp.o)
 .xc_stack_usage
                0x00000000       0x16 c:/program files/microchip/xc32/v4.21/bin/bin/../../lib/gcc/pic32c/8.3.1/../../../../pic32c/lib/thumb/v7e-m+fp/hard\libc-musl.a(__fmt_fp.o)
 .xc_stack_usage.hdr
                0x00000000        0xe c:/program files/microchip/xc32/v4.21/bin/bin/../../lib/gcc/pic32c/8.3.1/../../../../pic32c/lib/thumb/v7e-m+fp/hard\libc-musl.a(__fmt_fp.o)
 .text          0x00000000        0x0 c:/program files/microchip/xc32/v4.21/bin/bin/../../lib/gcc/pic32c/8.3.1/../../../../pic32c/lib/thumb/v7e-m+fp/hard\libc-musl.a(__fmt_o.o)
 .data          0x00000000        0x0 c:/program files/microchip/xc32/v4.21/bin/bin/../../lib/gcc/pic32c/8.3.1/../../../../pic32c/lib/thumb/v7e-m+fp/hard\libc-musl.a(__fmt_o.o)
 .bss           0x00000000        0x0 c:/program files/microchip/xc32/v4.21/bin/bin/../../lib/gcc/pic32c/8.3.1/../../../../pic32c/lib/thumb/v7e-m+fp/hard\libc-musl.a(__fmt_o.o)
 .xc_stack_usage
                0x00000000       0x15 c:/program files/microchip/xc32/v4.21/bin/bin/../../lib/gcc/pic32c/8.3.1/../../../../pic32c/lib/thumb/v7e-m+fp/hard\libc-musl.a(__fmt_o.o)
 .xc_stack_usage.hdr
                0x00000000        0xe c:/program files/microchip/xc32/v4.21/bin/bin/../../lib/gcc/pic32c/8.3.1/../../../../pic32c/lib/thumb/v7e-m+fp/hard\libc-musl.a(__fmt_o.o)
 .text          0x00000000        0x0 c:/program files/microchip/xc32/v4.21/bin/bin/../../lib/gcc/pic32c/8.3.1/../../../../pic32c/lib/thumb/v7e-m+fp/hard\libc-musl.a(__fmt_s.o)
 .data          0x00000000        0x0 c:/program files/microchip/xc32/v4.21/bin/bin/../../lib/gcc/pic32c/8.3.1/../../../../pic32c/lib/thumb/v7e-m+fp/hard\libc-musl.a(__fmt_s.o)
 .bss           0x00000000        0x0 c:/program files/microchip/xc32/v4.21/bin/bin/../../lib/gcc/pic32c/8.3.1/../../../../pic32c/lib/thumb/v7e-m+fp/hard\libc-musl.a(__fmt_s.o)
 .xc_stack_usage
                0x00000000       0x15 c:/program files/microchip/xc32/v4.21/bin/bin/../../lib/gcc/pic32c/8.3.1/../../../../pic32c/lib/thumb/v7e-m+fp/hard\libc-musl.a(__fmt_s.o)
 .xc_stack_usage.hdr
                0x00000000        0xe c:/program files/microchip/xc32/v4.21/bin/bin/../../lib/gcc/pic32c/8.3.1/../../../../pic32c/lib/thumb/v7e-m+fp/hard\libc-musl.a(__fmt_s.o)
 .text          0x00000000        0x0 c:/program files/microchip/xc32/v4.21/bin/bin/../../lib/gcc/pic32c/8.3.1/../../../../pic32c/lib/thumb/v7e-m+fp/hard\libc-musl.a(__fmt_u.o)
 .data          0x00000000        0x0 c:/program files/microchip/xc32/v4.21/bin/bin/../../lib/gcc/pic32c/8.3.1/../../../../pic32c/lib/thumb/v7e-m+fp/hard\libc-musl.a(__fmt_u.o)
 .bss           0x00000000        0x0 c:/program files/microchip/xc32/v4.21/bin/bin/../../lib/gcc/pic32c/8.3.1/../../../../pic32c/lib/thumb/v7e-m+fp/hard\libc-musl.a(__fmt_u.o)
 .xc_stack_usage
                0x00000000       0x2a c:/program files/microchip/xc32/v4.21/bin/bin/../../lib/gcc/pic32c/8.3.1/../../../../pic32c/lib/thumb/v7e-m+fp/hard\libc-musl.a(__fmt_u.o)
 .xc_stack_usage.hdr
                0x00000000        0xe c:/program files/microchip/xc32/v4.21/bin/bin/../../lib/gcc/pic32c/8.3.1/../../../../pic32c/lib/thumb/v7e-m+fp/hard\libc-musl.a(__fmt_u.o)
 .text          0x00000000        0x0 c:/program files/microchip/xc32/v4.21/bin/bin/../../lib/gcc/pic32c/8.3.1/../../../../pic32c/lib/thumb/v7e-m+fp/hard\libc-musl.a(__fmt_x.o)
 .data          0x00000000        0x0 c:/program files/microchip/xc32/v4.21/bin/bin/../../lib/gcc/pic32c/8.3.1/../../../../pic32c/lib/thumb/v7e-m+fp/hard\libc-musl.a(__fmt_x.o)
 .bss           0x00000000        0x0 c:/program files/microchip/xc32/v4.21/bin/bin/../../lib/gcc/pic32c/8.3.1/../../../../pic32c/lib/thumb/v7e-m+fp/hard\libc-musl.a(__fmt_x.o)
 .xc_stack_usage
                0x00000000       0x15 c:/program files/microchip/xc32/v4.21/bin/bin/../../lib/gcc/pic32c/8.3.1/../../../../pic32c/lib/thumb/v7e-m+fp/hard\libc-musl.a(__fmt_x.o)
 .xc_stack_usage.hdr
                0x00000000        0xe c:/program files/microchip/xc32/v4.21/bin/bin/../../lib/gcc/pic32c/8.3.1/../../../../pic32c/lib/thumb/v7e-m+fp/hard\libc-musl.a(__fmt_x.o)
 .text          0x00000000        0x0 c:/program files/microchip/xc32/v4.21/bin/bin/../../lib/gcc/pic32c/8.3.1/../../../../pic32c/lib/thumb/v7e-m+fp/hard\libc-musl.a(__pop_float.o)
 .data          0x00000000        0x0 c:/program files/microchip/xc32/v4.21/bin/bin/../../lib/gcc/pic32c/8.3.1/../../../../pic32c/lib/thumb/v7e-m+fp/hard\libc-musl.a(__pop_float.o)
 .bss           0x00000000        0x0 c:/program files/microchip/xc32/v4.21/bin/bin/../../lib/gcc/pic32c/8.3.1/../../../../pic32c/lib/thumb/v7e-m+fp/hard\libc-musl.a(__pop_float.o)
 .xc_stack_usage
                0x00000000       0x19 c:/program files/microchip/xc32/v4.21/bin/bin/../../lib/gcc/pic32c/8.3.1/../../../../pic32c/lib/thumb/v7e-m+fp/hard\libc-musl.a(__pop_float.o)
 .xc_stack_usage.hdr
                0x00000000        0xe c:/program files/microchip/xc32/v4.21/bin/bin/../../lib/gcc/pic32c/8.3.1/../../../../pic32c/lib/thumb/v7e-m+fp/hard\libc-musl.a(__pop_float.o)
 .text          0x00000000        0x0 c:/program files/microchip/xc32/v4.21/bin/bin/../../lib/gcc/pic32c/8.3.1/../../../../pic32c/lib/thumb/v7e-m+fp/hard\libc-musl.a(__pop_int.o)
 .data          0x00000000        0x0 c:/program files/microchip/xc32/v4.21/bin/bin/../../lib/gcc/pic32c/8.3.1/../../../../pic32c/lib/thumb/v7e-m+fp/hard\libc-musl.a(__pop_int.o)
 .bss           0x00000000        0x0 c:/program files/microchip/xc32/v4.21/bin/bin/../../lib/gcc/pic32c/8.3.1/../../../../pic32c/lib/thumb/v7e-m+fp/hard\libc-musl.a(__pop_int.o)
 .xc_stack_usage
                0x00000000       0x17 c:/program files/microchip/xc32/v4.21/bin/bin/../../lib/gcc/pic32c/8.3.1/../../../../pic32c/lib/thumb/v7e-m+fp/hard\libc-musl.a(__pop_int.o)
 .xc_stack_usage.hdr
                0x00000000        0xe c:/program files/microchip/xc32/v4.21/bin/bin/../../lib/gcc/pic32c/8.3.1/../../../../pic32c/lib/thumb/v7e-m+fp/hard\libc-musl.a(__pop_int.o)
 .text          0x00000000        0x0 c:/program files/microchip/xc32/v4.21/bin/bin/../../lib/gcc/pic32c/8.3.1/../../../../pic32c/lib/thumb/v7e-m+fp/hard\libc-musl.a(__pop_ptr.o)
 .data          0x00000000        0x0 c:/program files/microchip/xc32/v4.21/bin/bin/../../lib/gcc/pic32c/8.3.1/../../../../pic32c/lib/thumb/v7e-m+fp/hard\libc-musl.a(__pop_ptr.o)
 .bss           0x00000000        0x0 c:/program files/microchip/xc32/v4.21/bin/bin/../../lib/gcc/pic32c/8.3.1/../../../../pic32c/lib/thumb/v7e-m+fp/hard\libc-musl.a(__pop_ptr.o)
 .xc_stack_usage
                0x00000000       0x17 c:/program files/microchip/xc32/v4.21/bin/bin/../../lib/gcc/pic32c/8.3.1/../../../../pic32c/lib/thumb/v7e-m+fp/hard\libc-musl.a(__pop_ptr.o)
 .xc_stack_usage.hdr
                0x00000000        0xe c:/program files/microchip/xc32/v4.21/bin/bin/../../lib/gcc/pic32c/8.3.1/../../../../pic32c/lib/thumb/v7e-m+fp/hard\libc-musl.a(__pop_ptr.o)
 .text          0x00000000        0x0 c:/program files/microchip/xc32/v4.21/bin/bin/../../lib/gcc/pic32c/8.3.1/../../../../pic32c/lib/thumb/v7e-m+fp/hard\libc-musl.a(__printf_core.o)
 .data          0x00000000        0x0 c:/program files/microchip/xc32/v4.21/bin/bin/../../lib/gcc/pic32c/8.3.1/../../../../pic32c/lib/thumb/v7e-m+fp/hard\libc-musl.a(__printf_core.o)
 .bss           0x00000000        0x0 c:/program files/microchip/xc32/v4.21/bin/bin/../../lib/gcc/pic32c/8.3.1/../../../../pic32c/lib/thumb/v7e-m+fp/hard\libc-musl.a(__printf_core.o)
 .xc_stack_usage
                0x00000000       0xaf c:/program files/microchip/xc32/v4.21/bin/bin/../../lib/gcc/pic32c/8.3.1/../../../../pic32c/lib/thumb/v7e-m+fp/hard\libc-musl.a(__printf_core.o)
 .text.__string_out
                0x00000000       0x26 c:/program files/microchip/xc32/v4.21/bin/bin/../../lib/gcc/pic32c/8.3.1/../../../../pic32c/lib/thumb/v7e-m+fp/hard\libc-musl.a(__printf_core.o)
 .text.__dummy_fmt3
                0x00000000        0x4 c:/program files/microchip/xc32/v4.21/bin/bin/../../lib/gcc/pic32c/8.3.1/../../../../pic32c/lib/thumb/v7e-m+fp/hard\libc-musl.a(__printf_core.o)
 .text.__dummy_fmts
                0x00000000        0x4 c:/program files/microchip/xc32/v4.21/bin/bin/../../lib/gcc/pic32c/8.3.1/../../../../pic32c/lib/thumb/v7e-m+fp/hard\libc-musl.a(__printf_core.o)
 .xc_stack_usage.hdr
                0x00000000        0xe c:/program files/microchip/xc32/v4.21/bin/bin/../../lib/gcc/pic32c/8.3.1/../../../../pic32c/lib/thumb/v7e-m+fp/hard\libc-musl.a(__printf_core.o)
 .text          0x00000000        0x0 c:/program files/microchip/xc32/v4.21/bin/bin/../../lib/gcc/pic32c/8.3.1/../../../../pic32c/lib/thumb/v7e-m+fp/hard\libc-musl.a(stdin.o)
 .xc_stack_usage
                0x00000000       0x33 c:/program files/microchip/xc32/v4.21/bin/bin/../../lib/gcc/pic32c/8.3.1/../../../../pic32c/lib/thumb/v7e-m+fp/hard\libc-musl.a(stdin.o)
 .xc_stack_usage.hdr
                0x00000000        0xe c:/program files/microchip/xc32/v4.21/bin/bin/../../lib/gcc/pic32c/8.3.1/../../../../pic32c/lib/thumb/v7e-m+fp/hard\libc-musl.a(stdin.o)
 .text          0x00000000        0x0 c:/program files/microchip/xc32/v4.21/bin/bin/../../lib/gcc/pic32c/8.3.1/../../../../pic32c/lib/thumb/v7e-m+fp/hard\libc-musl.a(stdout.o)
 .xc_stack_usage
                0x00000000       0x51 c:/program files/microchip/xc32/v4.21/bin/bin/../../lib/gcc/pic32c/8.3.1/../../../../pic32c/lib/thumb/v7e-m+fp/hard\libc-musl.a(stdout.o)
 .text.__dummy  0x00000000        0x8 c:/program files/microchip/xc32/v4.21/bin/bin/../../lib/gcc/pic32c/8.3.1/../../../../pic32c/lib/thumb/v7e-m+fp/hard\libc-musl.a(stdout.o)
 .xc_stack_usage.hdr
                0x00000000        0xe c:/program files/microchip/xc32/v4.21/bin/bin/../../lib/gcc/pic32c/8.3.1/../../../../pic32c/lib/thumb/v7e-m+fp/hard\libc-musl.a(stdout.o)
 .text          0x00000000        0x0 c:/program files/microchip/xc32/v4.21/bin/bin/../../lib/gcc/pic32c/8.3.1/../../../../pic32c/lib/thumb/v7e-m+fp/hard\libc-musl.a(puts.o)
 .data          0x00000000        0x0 c:/program files/microchip/xc32/v4.21/bin/bin/../../lib/gcc/pic32c/8.3.1/../../../../pic32c/lib/thumb/v7e-m+fp/hard\libc-musl.a(puts.o)
 .bss           0x00000000        0x0 c:/program files/microchip/xc32/v4.21/bin/bin/../../lib/gcc/pic32c/8.3.1/../../../../pic32c/lib/thumb/v7e-m+fp/hard\libc-musl.a(puts.o)
 .xc_stack_usage
                0x00000000       0x12 c:/program files/microchip/xc32/v4.21/bin/bin/../../lib/gcc/pic32c/8.3.1/../../../../pic32c/lib/thumb/v7e-m+fp/hard\libc-musl.a(puts.o)
 .xc_stack_usage.hdr
                0x00000000        0xe c:/program files/microchip/xc32/v4.21/bin/bin/../../lib/gcc/pic32c/8.3.1/../../../../pic32c/lib/thumb/v7e-m+fp/hard\libc-musl.a(puts.o)
 .text          0x00000000        0x0 c:/program files/microchip/xc32/v4.21/bin/bin/../../lib/gcc/pic32c/8.3.1/../../../../pic32c/lib/thumb/v7e-m+fp/hard\libc-musl.a(setbuf.o)
 .data          0x00000000        0x0 c:/program files/microchip/xc32/v4.21/bin/bin/../../lib/gcc/pic32c/8.3.1/../../../../pic32c/lib/thumb/v7e-m+fp/hard\libc-musl.a(setbuf.o)
 .bss           0x00000000        0x0 c:/program files/microchip/xc32/v4.21/bin/bin/../../lib/gcc/pic32c/8.3.1/../../../../pic32c/lib/thumb/v7e-m+fp/hard\libc-musl.a(setbuf.o)
 .xc_stack_usage
                0x00000000       0x14 c:/program files/microchip/xc32/v4.21/bin/bin/../../lib/gcc/pic32c/8.3.1/../../../../pic32c/lib/thumb/v7e-m+fp/hard\libc-musl.a(setbuf.o)
 .xc_stack_usage.hdr
                0x00000000        0xe c:/program files/microchip/xc32/v4.21/bin/bin/../../lib/gcc/pic32c/8.3.1/../../../../pic32c/lib/thumb/v7e-m+fp/hard\libc-musl.a(setbuf.o)
 .text          0x00000000        0x0 c:/program files/microchip/xc32/v4.21/bin/bin/../../lib/gcc/pic32c/8.3.1/../../../../pic32c/lib/thumb/v7e-m+fp/hard\libc-musl.a(atoi.o)
 .data          0x00000000        0x0 c:/program files/microchip/xc32/v4.21/bin/bin/../../lib/gcc/pic32c/8.3.1/../../../../pic32c/lib/thumb/v7e-m+fp/hard\libc-musl.a(atoi.o)
 .bss           0x00000000        0x0 c:/program files/microchip/xc32/v4.21/bin/bin/../../lib/gcc/pic32c/8.3.1/../../../../pic32c/lib/thumb/v7e-m+fp/hard\libc-musl.a(atoi.o)
 .xc_stack_usage
                0x00000000       0x12 c:/program files/microchip/xc32/v4.21/bin/bin/../../lib/gcc/pic32c/8.3.1/../../../../pic32c/lib/thumb/v7e-m+fp/hard\libc-musl.a(atoi.o)
 .xc_stack_usage.hdr
                0x00000000        0xe c:/program files/microchip/xc32/v4.21/bin/bin/../../lib/gcc/pic32c/8.3.1/../../../../pic32c/lib/thumb/v7e-m+fp/hard\libc-musl.a(atoi.o)
 .text          0x00000000        0x0 c:/program files/microchip/xc32/v4.21/bin/bin/../../lib/gcc/pic32c/8.3.1/../../../../pic32c/lib/thumb/v7e-m+fp/hard\libc-musl.a(memcpy.o)
 .data          0x00000000        0x0 c:/program files/microchip/xc32/v4.21/bin/bin/../../lib/gcc/pic32c/8.3.1/../../../../pic32c/lib/thumb/v7e-m+fp/hard\libc-musl.a(memcpy.o)
 .bss           0x00000000        0x0 c:/program files/microchip/xc32/v4.21/bin/bin/../../lib/gcc/pic32c/8.3.1/../../../../pic32c/lib/thumb/v7e-m+fp/hard\libc-musl.a(memcpy.o)
 .xc_stack_usage
                0x00000000       0x14 c:/program files/microchip/xc32/v4.21/bin/bin/../../lib/gcc/pic32c/8.3.1/../../../../pic32c/lib/thumb/v7e-m+fp/hard\libc-musl.a(memcpy.o)
 .xc_stack_usage.hdr
                0x00000000        0xe c:/program files/microchip/xc32/v4.21/bin/bin/../../lib/gcc/pic32c/8.3.1/../../../../pic32c/lib/thumb/v7e-m+fp/hard\libc-musl.a(memcpy.o)
 .text          0x00000000        0x0 c:/program files/microchip/xc32/v4.21/bin/bin/../../lib/gcc/pic32c/8.3.1/../../../../pic32c/lib/thumb/v7e-m+fp/hard\libc-musl.a(memset.o)
 .data          0x00000000        0x0 c:/program files/microchip/xc32/v4.21/bin/bin/../../lib/gcc/pic32c/8.3.1/../../../../pic32c/lib/thumb/v7e-m+fp/hard\libc-musl.a(memset.o)
 .bss           0x00000000        0x0 c:/program files/microchip/xc32/v4.21/bin/bin/../../lib/gcc/pic32c/8.3.1/../../../../pic32c/lib/thumb/v7e-m+fp/hard\libc-musl.a(memset.o)
 .xc_stack_usage
                0x00000000       0x14 c:/program files/microchip/xc32/v4.21/bin/bin/../../lib/gcc/pic32c/8.3.1/../../../../pic32c/lib/thumb/v7e-m+fp/hard\libc-musl.a(memset.o)
 .xc_stack_usage.hdr
                0x00000000        0xe c:/program files/microchip/xc32/v4.21/bin/bin/../../lib/gcc/pic32c/8.3.1/../../../../pic32c/lib/thumb/v7e-m+fp/hard\libc-musl.a(memset.o)
 .text          0x00000000        0x0 c:/program files/microchip/xc32/v4.21/bin/bin/../../lib/gcc/pic32c/8.3.1/../../../../pic32c/lib/thumb/v7e-m+fp/hard\libc-musl.a(strlen.o)
 .data          0x00000000        0x0 c:/program files/microchip/xc32/v4.21/bin/bin/../../lib/gcc/pic32c/8.3.1/../../../../pic32c/lib/thumb/v7e-m+fp/hard\libc-musl.a(strlen.o)
 .bss           0x00000000        0x0 c:/program files/microchip/xc32/v4.21/bin/bin/../../lib/gcc/pic32c/8.3.1/../../../../pic32c/lib/thumb/v7e-m+fp/hard\libc-musl.a(strlen.o)
 .xc_stack_usage
                0x00000000       0x14 c:/program files/microchip/xc32/v4.21/bin/bin/../../lib/gcc/pic32c/8.3.1/../../../../pic32c/lib/thumb/v7e-m+fp/hard\libc-musl.a(strlen.o)
 .xc_stack_usage.hdr
                0x00000000        0xe c:/program files/microchip/xc32/v4.21/bin/bin/../../lib/gcc/pic32c/8.3.1/../../../../pic32c/lib/thumb/v7e-m+fp/hard\libc-musl.a(strlen.o)
 .text          0x00000000        0x0 c:/program files/microchip/xc32/v4.21/bin/bin/../../lib/gcc/pic32c/8.3.1/../../../../pic32c/lib/thumb/v7e-m+fp/hard\libc-musl.a(strcpy.o)
 .data          0x00000000        0x0 c:/program files/microchip/xc32/v4.21/bin/bin/../../lib/gcc/pic32c/8.3.1/../../../../pic32c/lib/thumb/v7e-m+fp/hard\libc-musl.a(strcpy.o)
 .bss           0x00000000        0x0 c:/program files/microchip/xc32/v4.21/bin/bin/../../lib/gcc/pic32c/8.3.1/../../../../pic32c/lib/thumb/v7e-m+fp/hard\libc-musl.a(strcpy.o)
 .xc_stack_usage
                0x00000000       0x14 c:/program files/microchip/xc32/v4.21/bin/bin/../../lib/gcc/pic32c/8.3.1/../../../../pic32c/lib/thumb/v7e-m+fp/hard\libc-musl.a(strcpy.o)
 .xc_stack_usage.hdr
                0x00000000        0xe c:/program files/microchip/xc32/v4.21/bin/bin/../../lib/gcc/pic32c/8.3.1/../../../../pic32c/lib/thumb/v7e-m+fp/hard\libc-musl.a(strcpy.o)
 .text          0x00000000        0x0 c:/program files/microchip/xc32/v4.21/bin/bin/../../lib/gcc/pic32c/8.3.1/../../../../pic32c/lib/thumb/v7e-m+fp/hard\libc-musl.a(tolower.o)
 .data          0x00000000        0x0 c:/program files/microchip/xc32/v4.21/bin/bin/../../lib/gcc/pic32c/8.3.1/../../../../pic32c/lib/thumb/v7e-m+fp/hard\libc-musl.a(tolower.o)
 .bss           0x00000000        0x0 c:/program files/microchip/xc32/v4.21/bin/bin/../../lib/gcc/pic32c/8.3.1/../../../../pic32c/lib/thumb/v7e-m+fp/hard\libc-musl.a(tolower.o)
 .xc_stack_usage
                0x00000000       0x2e c:/program files/microchip/xc32/v4.21/bin/bin/../../lib/gcc/pic32c/8.3.1/../../../../pic32c/lib/thumb/v7e-m+fp/hard\libc-musl.a(tolower.o)
 .text.__tolower_l
                0x00000000        0x4 c:/program files/microchip/xc32/v4.21/bin/bin/../../lib/gcc/pic32c/8.3.1/../../../../pic32c/lib/thumb/v7e-m+fp/hard\libc-musl.a(tolower.o)
 .xc_stack_usage.hdr
                0x00000000        0xe c:/program files/microchip/xc32/v4.21/bin/bin/../../lib/gcc/pic32c/8.3.1/../../../../pic32c/lib/thumb/v7e-m+fp/hard\libc-musl.a(tolower.o)
 .text          0x00000000        0x0 c:/program files/microchip/xc32/v4.21/bin/bin/../../lib/gcc/pic32c/8.3.1/../../../../pic32c/lib/thumb/v7e-m+fp/hard\libc-musl.a(toupper.o)
 .data          0x00000000        0x0 c:/program files/microchip/xc32/v4.21/bin/bin/../../lib/gcc/pic32c/8.3.1/../../../../pic32c/lib/thumb/v7e-m+fp/hard\libc-musl.a(toupper.o)
 .bss           0x00000000        0x0 c:/program files/microchip/xc32/v4.21/bin/bin/../../lib/gcc/pic32c/8.3.1/../../../../pic32c/lib/thumb/v7e-m+fp/hard\libc-musl.a(toupper.o)
 .xc_stack_usage
                0x00000000       0x2e c:/program files/microchip/xc32/v4.21/bin/bin/../../lib/gcc/pic32c/8.3.1/../../../../pic32c/lib/thumb/v7e-m+fp/hard\libc-musl.a(toupper.o)
 .text.__toupper_l
                0x00000000        0x4 c:/program files/microchip/xc32/v4.21/bin/bin/../../lib/gcc/pic32c/8.3.1/../../../../pic32c/lib/thumb/v7e-m+fp/hard\libc-musl.a(toupper.o)
 .xc_stack_usage.hdr
                0x00000000        0xe c:/program files/microchip/xc32/v4.21/bin/bin/../../lib/gcc/pic32c/8.3.1/../../../../pic32c/lib/thumb/v7e-m+fp/hard\libc-musl.a(toupper.o)
 .text          0x00000000        0x0 c:/program files/microchip/xc32/v4.21/bin/bin/../../lib/gcc/pic32c/8.3.1/../../../../pic32c/lib/thumb/v7e-m+fp/hard\libc-musl.a(__environ.o)
 .data          0x00000000        0x0 c:/program files/microchip/xc32/v4.21/bin/bin/../../lib/gcc/pic32c/8.3.1/../../../../pic32c/lib/thumb/v7e-m+fp/hard\libc-musl.a(__environ.o)
 .xc_stack_usage.hdr
                0x00000000        0xe c:/program files/microchip/xc32/v4.21/bin/bin/../../lib/gcc/pic32c/8.3.1/../../../../pic32c/lib/thumb/v7e-m+fp/hard\libc-musl.a(__environ.o)
 .text          0x00000000        0x0 c:/program files/microchip/xc32/v4.21/bin/bin/../../lib/gcc/pic32c/8.3.1/../../../../pic32c/lib/thumb/v7e-m+fp/hard\libc-musl.a(__errno_location.o)
 .data          0x00000000        0x0 c:/program files/microchip/xc32/v4.21/bin/bin/../../lib/gcc/pic32c/8.3.1/../../../../pic32c/lib/thumb/v7e-m+fp/hard\libc-musl.a(__errno_location.o)
 .xc_stack_usage.hdr
                0x00000000        0xe c:/program files/microchip/xc32/v4.21/bin/bin/../../lib/gcc/pic32c/8.3.1/../../../../pic32c/lib/thumb/v7e-m+fp/hard\libc-musl.a(__errno_location.o)
 .text          0x00000000        0x0 c:/program files/microchip/xc32/v4.21/bin/bin/../../lib/gcc/pic32c/8.3.1/../../../../pic32c/lib/thumb/v7e-m+fp/hard\libc-musl.a(__int_vfprintf.o)
 .data          0x00000000        0x0 c:/program files/microchip/xc32/v4.21/bin/bin/../../lib/gcc/pic32c/8.3.1/../../../../pic32c/lib/thumb/v7e-m+fp/hard\libc-musl.a(__int_vfprintf.o)
 .bss           0x00000000        0x0 c:/program files/microchip/xc32/v4.21/bin/bin/../../lib/gcc/pic32c/8.3.1/../../../../pic32c/lib/thumb/v7e-m+fp/hard\libc-musl.a(__int_vfprintf.o)
 .xc_stack_usage
                0x00000000       0x18 c:/program files/microchip/xc32/v4.21/bin/bin/../../lib/gcc/pic32c/8.3.1/../../../../pic32c/lib/thumb/v7e-m+fp/hard\libc-musl.a(__int_vfprintf.o)
 .xc_stack_usage.hdr
                0x00000000        0xe c:/program files/microchip/xc32/v4.21/bin/bin/../../lib/gcc/pic32c/8.3.1/../../../../pic32c/lib/thumb/v7e-m+fp/hard\libc-musl.a(__int_vfprintf.o)
 .text          0x00000000        0x0 c:/program files/microchip/xc32/v4.21/bin/bin/../../lib/gcc/pic32c/8.3.1/../../../../pic32c/lib/thumb/v7e-m+fp/hard\libc-musl.a(fputs.o)
 .data          0x00000000        0x0 c:/program files/microchip/xc32/v4.21/bin/bin/../../lib/gcc/pic32c/8.3.1/../../../../pic32c/lib/thumb/v7e-m+fp/hard\libc-musl.a(fputs.o)
 .bss           0x00000000        0x0 c:/program files/microchip/xc32/v4.21/bin/bin/../../lib/gcc/pic32c/8.3.1/../../../../pic32c/lib/thumb/v7e-m+fp/hard\libc-musl.a(fputs.o)
 .xc_stack_usage
                0x00000000       0x13 c:/program files/microchip/xc32/v4.21/bin/bin/../../lib/gcc/pic32c/8.3.1/../../../../pic32c/lib/thumb/v7e-m+fp/hard\libc-musl.a(fputs.o)
 .xc_stack_usage.hdr
                0x00000000        0xe c:/program files/microchip/xc32/v4.21/bin/bin/../../lib/gcc/pic32c/8.3.1/../../../../pic32c/lib/thumb/v7e-m+fp/hard\libc-musl.a(fputs.o)
 .text          0x00000000        0x0 c:/program files/microchip/xc32/v4.21/bin/bin/../../lib/gcc/pic32c/8.3.1/../../../../pic32c/lib/thumb/v7e-m+fp/hard\libc-musl.a(__io_init_needed.o)
 .data          0x00000000        0x0 c:/program files/microchip/xc32/v4.21/bin/bin/../../lib/gcc/pic32c/8.3.1/../../../../pic32c/lib/thumb/v7e-m+fp/hard\libc-musl.a(__io_init_needed.o)
 .bss           0x00000000        0x0 c:/program files/microchip/xc32/v4.21/bin/bin/../../lib/gcc/pic32c/8.3.1/../../../../pic32c/lib/thumb/v7e-m+fp/hard\libc-musl.a(__io_init_needed.o)
 .xc_stack_usage
                0x00000000       0x40 c:/program files/microchip/xc32/v4.21/bin/bin/../../lib/gcc/pic32c/8.3.1/../../../../pic32c/lib/thumb/v7e-m+fp/hard\libc-musl.a(__io_init_needed.o)
 .xc_stack_usage.hdr
                0x00000000        0xe c:/program files/microchip/xc32/v4.21/bin/bin/../../lib/gcc/pic32c/8.3.1/../../../../pic32c/lib/thumb/v7e-m+fp/hard\libc-musl.a(__io_init_needed.o)
 .debug_info    0x00000000      0x366 c:/program files/microchip/xc32/v4.21/bin/bin/../../lib/gcc/pic32c/8.3.1/../../../../pic32c/lib/thumb/v7e-m+fp/hard\libc-musl.a(__io_init_needed.o)
 .debug_abbrev  0x00000000       0x79 c:/program files/microchip/xc32/v4.21/bin/bin/../../lib/gcc/pic32c/8.3.1/../../../../pic32c/lib/thumb/v7e-m+fp/hard\libc-musl.a(__io_init_needed.o)
 .debug_aranges
                0x00000000       0x28 c:/program files/microchip/xc32/v4.21/bin/bin/../../lib/gcc/pic32c/8.3.1/../../../../pic32c/lib/thumb/v7e-m+fp/hard\libc-musl.a(__io_init_needed.o)
 .debug_ranges  0x00000000       0x18 c:/program files/microchip/xc32/v4.21/bin/bin/../../lib/gcc/pic32c/8.3.1/../../../../pic32c/lib/thumb/v7e-m+fp/hard\libc-musl.a(__io_init_needed.o)
 .debug_line    0x00000000      0x139 c:/program files/microchip/xc32/v4.21/bin/bin/../../lib/gcc/pic32c/8.3.1/../../../../pic32c/lib/thumb/v7e-m+fp/hard\libc-musl.a(__io_init_needed.o)
 .debug_str     0x00000000       0x25 c:/program files/microchip/xc32/v4.21/bin/bin/../../lib/gcc/pic32c/8.3.1/../../../../pic32c/lib/thumb/v7e-m+fp/hard\libc-musl.a(__io_init_needed.o)
 .comment       0x00000000       0x2c c:/program files/microchip/xc32/v4.21/bin/bin/../../lib/gcc/pic32c/8.3.1/../../../../pic32c/lib/thumb/v7e-m+fp/hard\libc-musl.a(__io_init_needed.o)
 .note.GNU-stack
                0x00000000        0x0 c:/program files/microchip/xc32/v4.21/bin/bin/../../lib/gcc/pic32c/8.3.1/../../../../pic32c/lib/thumb/v7e-m+fp/hard\libc-musl.a(__io_init_needed.o)
 .debug_frame   0x00000000       0x30 c:/program files/microchip/xc32/v4.21/bin/bin/../../lib/gcc/pic32c/8.3.1/../../../../pic32c/lib/thumb/v7e-m+fp/hard\libc-musl.a(__io_init_needed.o)
 .ARM.attributes
                0x00000000       0x36 c:/program files/microchip/xc32/v4.21/bin/bin/../../lib/gcc/pic32c/8.3.1/../../../../pic32c/lib/thumb/v7e-m+fp/hard\libc-musl.a(__io_init_needed.o)
 .text          0x00000000        0x0 c:/program files/microchip/xc32/v4.21/bin/bin/../../lib/gcc/pic32c/8.3.1/../../../../pic32c/lib/thumb/v7e-m+fp/hard\libc-musl.a(__io_rw_needed.o)
 .data          0x00000000        0x0 c:/program files/microchip/xc32/v4.21/bin/bin/../../lib/gcc/pic32c/8.3.1/../../../../pic32c/lib/thumb/v7e-m+fp/hard\libc-musl.a(__io_rw_needed.o)
 .bss           0x00000000        0x0 c:/program files/microchip/xc32/v4.21/bin/bin/../../lib/gcc/pic32c/8.3.1/../../../../pic32c/lib/thumb/v7e-m+fp/hard\libc-musl.a(__io_rw_needed.o)
 .xc_stack_usage
                0x00000000       0x1c c:/program files/microchip/xc32/v4.21/bin/bin/../../lib/gcc/pic32c/8.3.1/../../../../pic32c/lib/thumb/v7e-m+fp/hard\libc-musl.a(__io_rw_needed.o)
 .xc_stack_usage.hdr
                0x00000000        0xe c:/program files/microchip/xc32/v4.21/bin/bin/../../lib/gcc/pic32c/8.3.1/../../../../pic32c/lib/thumb/v7e-m+fp/hard\libc-musl.a(__io_rw_needed.o)
 .debug_info    0x00000000      0x365 c:/program files/microchip/xc32/v4.21/bin/bin/../../lib/gcc/pic32c/8.3.1/../../../../pic32c/lib/thumb/v7e-m+fp/hard\libc-musl.a(__io_rw_needed.o)
 .debug_abbrev  0x00000000       0x6a c:/program files/microchip/xc32/v4.21/bin/bin/../../lib/gcc/pic32c/8.3.1/../../../../pic32c/lib/thumb/v7e-m+fp/hard\libc-musl.a(__io_rw_needed.o)
 .debug_loc     0x00000000       0x2c c:/program files/microchip/xc32/v4.21/bin/bin/../../lib/gcc/pic32c/8.3.1/../../../../pic32c/lib/thumb/v7e-m+fp/hard\libc-musl.a(__io_rw_needed.o)
 .debug_aranges
                0x00000000       0x20 c:/program files/microchip/xc32/v4.21/bin/bin/../../lib/gcc/pic32c/8.3.1/../../../../pic32c/lib/thumb/v7e-m+fp/hard\libc-musl.a(__io_rw_needed.o)
 .debug_ranges  0x00000000       0x10 c:/program files/microchip/xc32/v4.21/bin/bin/../../lib/gcc/pic32c/8.3.1/../../../../pic32c/lib/thumb/v7e-m+fp/hard\libc-musl.a(__io_rw_needed.o)
 .debug_line    0x00000000      0x13e c:/program files/microchip/xc32/v4.21/bin/bin/../../lib/gcc/pic32c/8.3.1/../../../../pic32c/lib/thumb/v7e-m+fp/hard\libc-musl.a(__io_rw_needed.o)
 .debug_str     0x00000000       0x4d c:/program files/microchip/xc32/v4.21/bin/bin/../../lib/gcc/pic32c/8.3.1/../../../../pic32c/lib/thumb/v7e-m+fp/hard\libc-musl.a(__io_rw_needed.o)
 .comment       0x00000000       0x2c c:/program files/microchip/xc32/v4.21/bin/bin/../../lib/gcc/pic32c/8.3.1/../../../../pic32c/lib/thumb/v7e-m+fp/hard\libc-musl.a(__io_rw_needed.o)
 .note.GNU-stack
                0x00000000        0x0 c:/program files/microchip/xc32/v4.21/bin/bin/../../lib/gcc/pic32c/8.3.1/../../../../pic32c/lib/thumb/v7e-m+fp/hard\libc-musl.a(__io_rw_needed.o)
 .debug_frame   0x00000000       0x2c c:/program files/microchip/xc32/v4.21/bin/bin/../../lib/gcc/pic32c/8.3.1/../../../../pic32c/lib/thumb/v7e-m+fp/hard\libc-musl.a(__io_rw_needed.o)
 .ARM.attributes
                0x00000000       0x36 c:/program files/microchip/xc32/v4.21/bin/bin/../../lib/gcc/pic32c/8.3.1/../../../../pic32c/lib/thumb/v7e-m+fp/hard\libc-musl.a(__io_rw_needed.o)
 .text          0x00000000        0x0 c:/program files/microchip/xc32/v4.21/bin/bin/../../lib/gcc/pic32c/8.3.1/../../../../pic32c/lib/thumb/v7e-m+fp/hard\libc-musl.a(__stdio_read.o)
 .data          0x00000000        0x0 c:/program files/microchip/xc32/v4.21/bin/bin/../../lib/gcc/pic32c/8.3.1/../../../../pic32c/lib/thumb/v7e-m+fp/hard\libc-musl.a(__stdio_read.o)
 .bss           0x00000000        0x0 c:/program files/microchip/xc32/v4.21/bin/bin/../../lib/gcc/pic32c/8.3.1/../../../../pic32c/lib/thumb/v7e-m+fp/hard\libc-musl.a(__stdio_read.o)
 .xc_stack_usage
                0x00000000       0x1a c:/program files/microchip/xc32/v4.21/bin/bin/../../lib/gcc/pic32c/8.3.1/../../../../pic32c/lib/thumb/v7e-m+fp/hard\libc-musl.a(__stdio_read.o)
 .xc_stack_usage.hdr
                0x00000000        0xe c:/program files/microchip/xc32/v4.21/bin/bin/../../lib/gcc/pic32c/8.3.1/../../../../pic32c/lib/thumb/v7e-m+fp/hard\libc-musl.a(__stdio_read.o)
 .text          0x00000000        0x0 c:/program files/microchip/xc32/v4.21/bin/bin/../../lib/gcc/pic32c/8.3.1/../../../../pic32c/lib/thumb/v7e-m+fp/hard\libc-musl.a(__towrite_rw.o)
 .data          0x00000000        0x0 c:/program files/microchip/xc32/v4.21/bin/bin/../../lib/gcc/pic32c/8.3.1/../../../../pic32c/lib/thumb/v7e-m+fp/hard\libc-musl.a(__towrite_rw.o)
 .bss           0x00000000        0x0 c:/program files/microchip/xc32/v4.21/bin/bin/../../lib/gcc/pic32c/8.3.1/../../../../pic32c/lib/thumb/v7e-m+fp/hard\libc-musl.a(__towrite_rw.o)
 .xc_stack_usage
                0x00000000       0x1a c:/program files/microchip/xc32/v4.21/bin/bin/../../lib/gcc/pic32c/8.3.1/../../../../pic32c/lib/thumb/v7e-m+fp/hard\libc-musl.a(__towrite_rw.o)
 .xc_stack_usage.hdr
                0x00000000        0xe c:/program files/microchip/xc32/v4.21/bin/bin/../../lib/gcc/pic32c/8.3.1/../../../../pic32c/lib/thumb/v7e-m+fp/hard\libc-musl.a(__towrite_rw.o)
 .text          0x00000000        0x0 c:/program files/microchip/xc32/v4.21/bin/bin/../../lib/gcc/pic32c/8.3.1/../../../../pic32c/lib/thumb/v7e-m+fp/hard\libc-musl.a(fwrite.o)
 .data          0x00000000        0x0 c:/program files/microchip/xc32/v4.21/bin/bin/../../lib/gcc/pic32c/8.3.1/../../../../pic32c/lib/thumb/v7e-m+fp/hard\libc-musl.a(fwrite.o)
 .bss           0x00000000        0x0 c:/program files/microchip/xc32/v4.21/bin/bin/../../lib/gcc/pic32c/8.3.1/../../../../pic32c/lib/thumb/v7e-m+fp/hard\libc-musl.a(fwrite.o)
 .xc_stack_usage
                0x00000000       0x2e c:/program files/microchip/xc32/v4.21/bin/bin/../../lib/gcc/pic32c/8.3.1/../../../../pic32c/lib/thumb/v7e-m+fp/hard\libc-musl.a(fwrite.o)
 .text.__fwrite_min
                0x00000000        0x6 c:/program files/microchip/xc32/v4.21/bin/bin/../../lib/gcc/pic32c/8.3.1/../../../../pic32c/lib/thumb/v7e-m+fp/hard\libc-musl.a(fwrite.o)
 .xc_stack_usage.hdr
                0x00000000        0xe c:/program files/microchip/xc32/v4.21/bin/bin/../../lib/gcc/pic32c/8.3.1/../../../../pic32c/lib/thumb/v7e-m+fp/hard\libc-musl.a(fwrite.o)
 .text          0x00000000        0x0 c:/program files/microchip/xc32/v4.21/bin/bin/../../lib/gcc/pic32c/8.3.1/../../../../pic32c/lib/thumb/v7e-m+fp/hard\libc-musl.a(putc.o)
 .data          0x00000000        0x0 c:/program files/microchip/xc32/v4.21/bin/bin/../../lib/gcc/pic32c/8.3.1/../../../../pic32c/lib/thumb/v7e-m+fp/hard\libc-musl.a(putc.o)
 .bss           0x00000000        0x0 c:/program files/microchip/xc32/v4.21/bin/bin/../../lib/gcc/pic32c/8.3.1/../../../../pic32c/lib/thumb/v7e-m+fp/hard\libc-musl.a(putc.o)
 .xc_stack_usage
                0x00000000       0x4f c:/program files/microchip/xc32/v4.21/bin/bin/../../lib/gcc/pic32c/8.3.1/../../../../pic32c/lib/thumb/v7e-m+fp/hard\libc-musl.a(putc.o)
 .xc_stack_usage.hdr
                0x00000000        0xe c:/program files/microchip/xc32/v4.21/bin/bin/../../lib/gcc/pic32c/8.3.1/../../../../pic32c/lib/thumb/v7e-m+fp/hard\libc-musl.a(putc.o)
 .text          0x00000000        0x0 c:/program files/microchip/xc32/v4.21/bin/bin/../../lib/gcc/pic32c/8.3.1/../../../../pic32c/lib/thumb/v7e-m+fp/hard\libc-musl.a(setvbuf.o)
 .data          0x00000000        0x0 c:/program files/microchip/xc32/v4.21/bin/bin/../../lib/gcc/pic32c/8.3.1/../../../../pic32c/lib/thumb/v7e-m+fp/hard\libc-musl.a(setvbuf.o)
 .bss           0x00000000        0x0 c:/program files/microchip/xc32/v4.21/bin/bin/../../lib/gcc/pic32c/8.3.1/../../../../pic32c/lib/thumb/v7e-m+fp/hard\libc-musl.a(setvbuf.o)
 .xc_stack_usage
                0x00000000       0x36 c:/program files/microchip/xc32/v4.21/bin/bin/../../lib/gcc/pic32c/8.3.1/../../../../pic32c/lib/thumb/v7e-m+fp/hard\libc-musl.a(setvbuf.o)
 .xc_stack_usage.hdr
                0x00000000        0xe c:/program files/microchip/xc32/v4.21/bin/bin/../../lib/gcc/pic32c/8.3.1/../../../../pic32c/lib/thumb/v7e-m+fp/hard\libc-musl.a(setvbuf.o)
 .text          0x00000000        0x0 c:/program files/microchip/xc32/v4.21/bin/bin/../../lib/gcc/pic32c/8.3.1/../../../../pic32c/lib/thumb/v7e-m+fp/hard\libc-musl.a(stpcpy.o)
 .data          0x00000000        0x0 c:/program files/microchip/xc32/v4.21/bin/bin/../../lib/gcc/pic32c/8.3.1/../../../../pic32c/lib/thumb/v7e-m+fp/hard\libc-musl.a(stpcpy.o)
 .bss           0x00000000        0x0 c:/program files/microchip/xc32/v4.21/bin/bin/../../lib/gcc/pic32c/8.3.1/../../../../pic32c/lib/thumb/v7e-m+fp/hard\libc-musl.a(stpcpy.o)
 .xc_stack_usage
                0x00000000       0x14 c:/program files/microchip/xc32/v4.21/bin/bin/../../lib/gcc/pic32c/8.3.1/../../../../pic32c/lib/thumb/v7e-m+fp/hard\libc-musl.a(stpcpy.o)
 .xc_stack_usage.hdr
                0x00000000        0xe c:/program files/microchip/xc32/v4.21/bin/bin/../../lib/gcc/pic32c/8.3.1/../../../../pic32c/lib/thumb/v7e-m+fp/hard\libc-musl.a(stpcpy.o)
 .text          0x00000000        0x0 c:/program files/microchip/xc32/v4.21/bin/bin/../../lib/gcc/pic32c/8.3.1/../../../../pic32c/lib/thumb/v7e-m+fp/hard\libc-musl.a(readv.o)
 .data          0x00000000        0x0 c:/program files/microchip/xc32/v4.21/bin/bin/../../lib/gcc/pic32c/8.3.1/../../../../pic32c/lib/thumb/v7e-m+fp/hard\libc-musl.a(readv.o)
 .bss           0x00000000        0x0 c:/program files/microchip/xc32/v4.21/bin/bin/../../lib/gcc/pic32c/8.3.1/../../../../pic32c/lib/thumb/v7e-m+fp/hard\libc-musl.a(readv.o)
 .xc_stack_usage
                0x00000000       0x15 c:/program files/microchip/xc32/v4.21/bin/bin/../../lib/gcc/pic32c/8.3.1/../../../../pic32c/lib/thumb/v7e-m+fp/hard\libc-musl.a(readv.o)
 .xc_stack_usage.hdr
                0x00000000        0xe c:/program files/microchip/xc32/v4.21/bin/bin/../../lib/gcc/pic32c/8.3.1/../../../../pic32c/lib/thumb/v7e-m+fp/hard\libc-musl.a(readv.o)
 .text          0x00000000        0x0 c:/program files/microchip/xc32/v4.21/bin/bin/../../lib/gcc/pic32c/8.3.1/../../../../pic32c/lib/thumb/v7e-m+fp/hard\libc-musl.a(malloc.o)
 .data          0x00000000        0x0 c:/program files/microchip/xc32/v4.21/bin/bin/../../lib/gcc/pic32c/8.3.1/../../../../pic32c/lib/thumb/v7e-m+fp/hard\libc-musl.a(malloc.o)
 .xc_stack_usage
                0x00000000       0xeb c:/program files/microchip/xc32/v4.21/bin/bin/../../lib/gcc/pic32c/8.3.1/../../../../pic32c/lib/thumb/v7e-m+fp/hard\libc-musl.a(malloc.o)
 .text.__malloc0
                0x00000000       0x26 c:/program files/microchip/xc32/v4.21/bin/bin/../../lib/gcc/pic32c/8.3.1/../../../../pic32c/lib/thumb/v7e-m+fp/hard\libc-musl.a(malloc.o)
 .text.realloc  0x00000000       0x90 c:/program files/microchip/xc32/v4.21/bin/bin/../../lib/gcc/pic32c/8.3.1/../../../../pic32c/lib/thumb/v7e-m+fp/hard\libc-musl.a(malloc.o)
 .xc_stack_usage.hdr
                0x00000000        0xe c:/program files/microchip/xc32/v4.21/bin/bin/../../lib/gcc/pic32c/8.3.1/../../../../pic32c/lib/thumb/v7e-m+fp/hard\libc-musl.a(malloc.o)
 .text          0x00000000        0x0 c:/program files/microchip/xc32/v4.21/bin/bin/../../lib/gcc/pic32c/8.3.1/../../../../pic32c/lib/thumb/v7e-m+fp/hard\libc-musl.a(expand_heap.o)
 .data          0x00000000        0x0 c:/program files/microchip/xc32/v4.21/bin/bin/../../lib/gcc/pic32c/8.3.1/../../../../pic32c/lib/thumb/v7e-m+fp/hard\libc-musl.a(expand_heap.o)
 .bss           0x00000000        0x0 c:/program files/microchip/xc32/v4.21/bin/bin/../../lib/gcc/pic32c/8.3.1/../../../../pic32c/lib/thumb/v7e-m+fp/hard\libc-musl.a(expand_heap.o)
 .xc_stack_usage
                0x00000000       0x1b c:/program files/microchip/xc32/v4.21/bin/bin/../../lib/gcc/pic32c/8.3.1/../../../../pic32c/lib/thumb/v7e-m+fp/hard\libc-musl.a(expand_heap.o)
 .xc_stack_usage.hdr
                0x00000000        0xe c:/program files/microchip/xc32/v4.21/bin/bin/../../lib/gcc/pic32c/8.3.1/../../../../pic32c/lib/thumb/v7e-m+fp/hard\libc-musl.a(expand_heap.o)
 .text          0x00000000        0x0 c:/program files/microchip/xc32/v4.21/bin/bin/../../lib/gcc/pic32c/8.3.1/../../../../pic32c/lib/thumb/v7e-m+fp/hard\libc-musl.a(__fopen_rw.o)
 .data          0x00000000        0x0 c:/program files/microchip/xc32/v4.21/bin/bin/../../lib/gcc/pic32c/8.3.1/../../../../pic32c/lib/thumb/v7e-m+fp/hard\libc-musl.a(__fopen_rw.o)
 .bss           0x00000000        0x0 c:/program files/microchip/xc32/v4.21/bin/bin/../../lib/gcc/pic32c/8.3.1/../../../../pic32c/lib/thumb/v7e-m+fp/hard\libc-musl.a(__fopen_rw.o)
 .xc_stack_usage
                0x00000000       0x18 c:/program files/microchip/xc32/v4.21/bin/bin/../../lib/gcc/pic32c/8.3.1/../../../../pic32c/lib/thumb/v7e-m+fp/hard\libc-musl.a(__fopen_rw.o)
 .text.__fopen_rw
                0x00000000       0x4c c:/program files/microchip/xc32/v4.21/bin/bin/../../lib/gcc/pic32c/8.3.1/../../../../pic32c/lib/thumb/v7e-m+fp/hard\libc-musl.a(__fopen_rw.o)
 .xc_stack_usage.hdr
                0x00000000        0xe c:/program files/microchip/xc32/v4.21/bin/bin/../../lib/gcc/pic32c/8.3.1/../../../../pic32c/lib/thumb/v7e-m+fp/hard\libc-musl.a(__fopen_rw.o)
 .debug_info    0x00000000      0x691 c:/program files/microchip/xc32/v4.21/bin/bin/../../lib/gcc/pic32c/8.3.1/../../../../pic32c/lib/thumb/v7e-m+fp/hard\libc-musl.a(__fopen_rw.o)
 .debug_abbrev  0x00000000      0x110 c:/program files/microchip/xc32/v4.21/bin/bin/../../lib/gcc/pic32c/8.3.1/../../../../pic32c/lib/thumb/v7e-m+fp/hard\libc-musl.a(__fopen_rw.o)
 .debug_loc     0x00000000       0x4f c:/program files/microchip/xc32/v4.21/bin/bin/../../lib/gcc/pic32c/8.3.1/../../../../pic32c/lib/thumb/v7e-m+fp/hard\libc-musl.a(__fopen_rw.o)
 .debug_aranges
                0x00000000       0x20 c:/program files/microchip/xc32/v4.21/bin/bin/../../lib/gcc/pic32c/8.3.1/../../../../pic32c/lib/thumb/v7e-m+fp/hard\libc-musl.a(__fopen_rw.o)
 .debug_ranges  0x00000000       0x10 c:/program files/microchip/xc32/v4.21/bin/bin/../../lib/gcc/pic32c/8.3.1/../../../../pic32c/lib/thumb/v7e-m+fp/hard\libc-musl.a(__fopen_rw.o)
 .debug_line    0x00000000      0x2a1 c:/program files/microchip/xc32/v4.21/bin/bin/../../lib/gcc/pic32c/8.3.1/../../../../pic32c/lib/thumb/v7e-m+fp/hard\libc-musl.a(__fopen_rw.o)
 .debug_str     0x00000000        0x0 c:/program files/microchip/xc32/v4.21/bin/bin/../../lib/gcc/pic32c/8.3.1/../../../../pic32c/lib/thumb/v7e-m+fp/hard\libc-musl.a(__fopen_rw.o)
 .comment       0x00000000       0x2c c:/program files/microchip/xc32/v4.21/bin/bin/../../lib/gcc/pic32c/8.3.1/../../../../pic32c/lib/thumb/v7e-m+fp/hard\libc-musl.a(__fopen_rw.o)
 .note.GNU-stack
                0x00000000        0x0 c:/program files/microchip/xc32/v4.21/bin/bin/../../lib/gcc/pic32c/8.3.1/../../../../pic32c/lib/thumb/v7e-m+fp/hard\libc-musl.a(__fopen_rw.o)
 .debug_frame   0x00000000       0x28 c:/program files/microchip/xc32/v4.21/bin/bin/../../lib/gcc/pic32c/8.3.1/../../../../pic32c/lib/thumb/v7e-m+fp/hard\libc-musl.a(__fopen_rw.o)
 .ARM.attributes
                0x00000000       0x36 c:/program files/microchip/xc32/v4.21/bin/bin/../../lib/gcc/pic32c/8.3.1/../../../../pic32c/lib/thumb/v7e-m+fp/hard\libc-musl.a(__fopen_rw.o)
 .text          0x00000000        0x0 c:/program files/microchip/xc32/v4.21/bin/bin/../../lib/gcc/pic32c/8.3.1/../../../../pic32c/lib/thumb/v7e-m+fp/hard\libc-musl.a(__ftello_rw.o)
 .data          0x00000000        0x0 c:/program files/microchip/xc32/v4.21/bin/bin/../../lib/gcc/pic32c/8.3.1/../../../../pic32c/lib/thumb/v7e-m+fp/hard\libc-musl.a(__ftello_rw.o)
 .bss           0x00000000        0x0 c:/program files/microchip/xc32/v4.21/bin/bin/../../lib/gcc/pic32c/8.3.1/../../../../pic32c/lib/thumb/v7e-m+fp/hard\libc-musl.a(__ftello_rw.o)
 .xc_stack_usage
                0x00000000       0x1d c:/program files/microchip/xc32/v4.21/bin/bin/../../lib/gcc/pic32c/8.3.1/../../../../pic32c/lib/thumb/v7e-m+fp/hard\libc-musl.a(__ftello_rw.o)
 .text.__ftello_adj_rw
                0x00000000       0x2c c:/program files/microchip/xc32/v4.21/bin/bin/../../lib/gcc/pic32c/8.3.1/../../../../pic32c/lib/thumb/v7e-m+fp/hard\libc-musl.a(__ftello_rw.o)
 .xc_stack_usage.hdr
                0x00000000        0xe c:/program files/microchip/xc32/v4.21/bin/bin/../../lib/gcc/pic32c/8.3.1/../../../../pic32c/lib/thumb/v7e-m+fp/hard\libc-musl.a(__ftello_rw.o)
 .debug_info    0x00000000      0x5f2 c:/program files/microchip/xc32/v4.21/bin/bin/../../lib/gcc/pic32c/8.3.1/../../../../pic32c/lib/thumb/v7e-m+fp/hard\libc-musl.a(__ftello_rw.o)
 .debug_abbrev  0x00000000       0xef c:/program files/microchip/xc32/v4.21/bin/bin/../../lib/gcc/pic32c/8.3.1/../../../../pic32c/lib/thumb/v7e-m+fp/hard\libc-musl.a(__ftello_rw.o)
 .debug_loc     0x00000000       0x45 c:/program files/microchip/xc32/v4.21/bin/bin/../../lib/gcc/pic32c/8.3.1/../../../../pic32c/lib/thumb/v7e-m+fp/hard\libc-musl.a(__ftello_rw.o)
 .debug_aranges
                0x00000000       0x20 c:/program files/microchip/xc32/v4.21/bin/bin/../../lib/gcc/pic32c/8.3.1/../../../../pic32c/lib/thumb/v7e-m+fp/hard\libc-musl.a(__ftello_rw.o)
 .debug_ranges  0x00000000       0x10 c:/program files/microchip/xc32/v4.21/bin/bin/../../lib/gcc/pic32c/8.3.1/../../../../pic32c/lib/thumb/v7e-m+fp/hard\libc-musl.a(__ftello_rw.o)
 .debug_line    0x00000000      0x1e9 c:/program files/microchip/xc32/v4.21/bin/bin/../../lib/gcc/pic32c/8.3.1/../../../../pic32c/lib/thumb/v7e-m+fp/hard\libc-musl.a(__ftello_rw.o)
 .debug_str     0x00000000        0x0 c:/program files/microchip/xc32/v4.21/bin/bin/../../lib/gcc/pic32c/8.3.1/../../../../pic32c/lib/thumb/v7e-m+fp/hard\libc-musl.a(__ftello_rw.o)
 .comment       0x00000000       0x2c c:/program files/microchip/xc32/v4.21/bin/bin/../../lib/gcc/pic32c/8.3.1/../../../../pic32c/lib/thumb/v7e-m+fp/hard\libc-musl.a(__ftello_rw.o)
 .note.GNU-stack
                0x00000000        0x0 c:/program files/microchip/xc32/v4.21/bin/bin/../../lib/gcc/pic32c/8.3.1/../../../../pic32c/lib/thumb/v7e-m+fp/hard\libc-musl.a(__ftello_rw.o)
 .debug_frame   0x00000000       0x2c c:/program files/microchip/xc32/v4.21/bin/bin/../../lib/gcc/pic32c/8.3.1/../../../../pic32c/lib/thumb/v7e-m+fp/hard\libc-musl.a(__ftello_rw.o)
 .ARM.attributes
                0x00000000       0x36 c:/program files/microchip/xc32/v4.21/bin/bin/../../lib/gcc/pic32c/8.3.1/../../../../pic32c/lib/thumb/v7e-m+fp/hard\libc-musl.a(__ftello_rw.o)
 .text          0x00000000        0x0 c:/program files/microchip/xc32/v4.21/bin/bin/../../lib/gcc/pic32c/8.3.1/../../../../pic32c/lib/thumb/v7e-m+fp/hard\libc-musl.a(__init_stdio.o)
 .data          0x00000000        0x0 c:/program files/microchip/xc32/v4.21/bin/bin/../../lib/gcc/pic32c/8.3.1/../../../../pic32c/lib/thumb/v7e-m+fp/hard\libc-musl.a(__init_stdio.o)
 .bss           0x00000000        0x0 c:/program files/microchip/xc32/v4.21/bin/bin/../../lib/gcc/pic32c/8.3.1/../../../../pic32c/lib/thumb/v7e-m+fp/hard\libc-musl.a(__init_stdio.o)
 .xc_stack_usage
                0x00000000       0x2f c:/program files/microchip/xc32/v4.21/bin/bin/../../lib/gcc/pic32c/8.3.1/../../../../pic32c/lib/thumb/v7e-m+fp/hard\libc-musl.a(__init_stdio.o)
 .xc_stack_usage.hdr
                0x00000000        0xe c:/program files/microchip/xc32/v4.21/bin/bin/../../lib/gcc/pic32c/8.3.1/../../../../pic32c/lib/thumb/v7e-m+fp/hard\libc-musl.a(__init_stdio.o)
 .text          0x00000000        0x0 c:/program files/microchip/xc32/v4.21/bin/bin/../../lib/gcc/pic32c/8.3.1/../../../../pic32c/lib/thumb/v7e-m+fp/hard\libc-musl.a(__io_buf_needed.o)
 .data          0x00000000        0x0 c:/program files/microchip/xc32/v4.21/bin/bin/../../lib/gcc/pic32c/8.3.1/../../../../pic32c/lib/thumb/v7e-m+fp/hard\libc-musl.a(__io_buf_needed.o)
 .bss           0x00000000        0x0 c:/program files/microchip/xc32/v4.21/bin/bin/../../lib/gcc/pic32c/8.3.1/../../../../pic32c/lib/thumb/v7e-m+fp/hard\libc-musl.a(__io_buf_needed.o)
 .xc_stack_usage
                0x00000000       0x1d c:/program files/microchip/xc32/v4.21/bin/bin/../../lib/gcc/pic32c/8.3.1/../../../../pic32c/lib/thumb/v7e-m+fp/hard\libc-musl.a(__io_buf_needed.o)
 .xc_stack_usage.hdr
                0x00000000        0xe c:/program files/microchip/xc32/v4.21/bin/bin/../../lib/gcc/pic32c/8.3.1/../../../../pic32c/lib/thumb/v7e-m+fp/hard\libc-musl.a(__io_buf_needed.o)
 .debug_info    0x00000000      0x3ac c:/program files/microchip/xc32/v4.21/bin/bin/../../lib/gcc/pic32c/8.3.1/../../../../pic32c/lib/thumb/v7e-m+fp/hard\libc-musl.a(__io_buf_needed.o)
 .debug_abbrev  0x00000000       0x6a c:/program files/microchip/xc32/v4.21/bin/bin/../../lib/gcc/pic32c/8.3.1/../../../../pic32c/lib/thumb/v7e-m+fp/hard\libc-musl.a(__io_buf_needed.o)
 .debug_loc     0x00000000       0x2c c:/program files/microchip/xc32/v4.21/bin/bin/../../lib/gcc/pic32c/8.3.1/../../../../pic32c/lib/thumb/v7e-m+fp/hard\libc-musl.a(__io_buf_needed.o)
 .debug_aranges
                0x00000000       0x20 c:/program files/microchip/xc32/v4.21/bin/bin/../../lib/gcc/pic32c/8.3.1/../../../../pic32c/lib/thumb/v7e-m+fp/hard\libc-musl.a(__io_buf_needed.o)
 .debug_ranges  0x00000000       0x10 c:/program files/microchip/xc32/v4.21/bin/bin/../../lib/gcc/pic32c/8.3.1/../../../../pic32c/lib/thumb/v7e-m+fp/hard\libc-musl.a(__io_buf_needed.o)
 .debug_line    0x00000000      0x142 c:/program files/microchip/xc32/v4.21/bin/bin/../../lib/gcc/pic32c/8.3.1/../../../../pic32c/lib/thumb/v7e-m+fp/hard\libc-musl.a(__io_buf_needed.o)
 .debug_str     0x00000000       0x77 c:/program files/microchip/xc32/v4.21/bin/bin/../../lib/gcc/pic32c/8.3.1/../../../../pic32c/lib/thumb/v7e-m+fp/hard\libc-musl.a(__io_buf_needed.o)
 .comment       0x00000000       0x2c c:/program files/microchip/xc32/v4.21/bin/bin/../../lib/gcc/pic32c/8.3.1/../../../../pic32c/lib/thumb/v7e-m+fp/hard\libc-musl.a(__io_buf_needed.o)
 .note.GNU-stack
                0x00000000        0x0 c:/program files/microchip/xc32/v4.21/bin/bin/../../lib/gcc/pic32c/8.3.1/../../../../pic32c/lib/thumb/v7e-m+fp/hard\libc-musl.a(__io_buf_needed.o)
 .debug_frame   0x00000000       0x2c c:/program files/microchip/xc32/v4.21/bin/bin/../../lib/gcc/pic32c/8.3.1/../../../../pic32c/lib/thumb/v7e-m+fp/hard\libc-musl.a(__io_buf_needed.o)
 .ARM.attributes
                0x00000000       0x36 c:/program files/microchip/xc32/v4.21/bin/bin/../../lib/gcc/pic32c/8.3.1/../../../../pic32c/lib/thumb/v7e-m+fp/hard\libc-musl.a(__io_buf_needed.o)
 .text          0x00000000        0x0 c:/program files/microchip/xc32/v4.21/bin/bin/../../lib/gcc/pic32c/8.3.1/../../../../pic32c/lib/thumb/v7e-m+fp/hard\libc-musl.a(__io_file_needed.o)
 .data          0x00000000        0x0 c:/program files/microchip/xc32/v4.21/bin/bin/../../lib/gcc/pic32c/8.3.1/../../../../pic32c/lib/thumb/v7e-m+fp/hard\libc-musl.a(__io_file_needed.o)
 .bss           0x00000000        0x0 c:/program files/microchip/xc32/v4.21/bin/bin/../../lib/gcc/pic32c/8.3.1/../../../../pic32c/lib/thumb/v7e-m+fp/hard\libc-musl.a(__io_file_needed.o)
 .xc_stack_usage
                0x00000000       0x1e c:/program files/microchip/xc32/v4.21/bin/bin/../../lib/gcc/pic32c/8.3.1/../../../../pic32c/lib/thumb/v7e-m+fp/hard\libc-musl.a(__io_file_needed.o)
 .xc_stack_usage.hdr
                0x00000000        0xe c:/program files/microchip/xc32/v4.21/bin/bin/../../lib/gcc/pic32c/8.3.1/../../../../pic32c/lib/thumb/v7e-m+fp/hard\libc-musl.a(__io_file_needed.o)
 .debug_info    0x00000000      0x323 c:/program files/microchip/xc32/v4.21/bin/bin/../../lib/gcc/pic32c/8.3.1/../../../../pic32c/lib/thumb/v7e-m+fp/hard\libc-musl.a(__io_file_needed.o)
 .debug_abbrev  0x00000000       0x5f c:/program files/microchip/xc32/v4.21/bin/bin/../../lib/gcc/pic32c/8.3.1/../../../../pic32c/lib/thumb/v7e-m+fp/hard\libc-musl.a(__io_file_needed.o)
 .debug_aranges
                0x00000000       0x20 c:/program files/microchip/xc32/v4.21/bin/bin/../../lib/gcc/pic32c/8.3.1/../../../../pic32c/lib/thumb/v7e-m+fp/hard\libc-musl.a(__io_file_needed.o)
 .debug_ranges  0x00000000       0x10 c:/program files/microchip/xc32/v4.21/bin/bin/../../lib/gcc/pic32c/8.3.1/../../../../pic32c/lib/thumb/v7e-m+fp/hard\libc-musl.a(__io_file_needed.o)
 .debug_line    0x00000000       0xb3 c:/program files/microchip/xc32/v4.21/bin/bin/../../lib/gcc/pic32c/8.3.1/../../../../pic32c/lib/thumb/v7e-m+fp/hard\libc-musl.a(__io_file_needed.o)
 .debug_str     0x00000000        0xd c:/program files/microchip/xc32/v4.21/bin/bin/../../lib/gcc/pic32c/8.3.1/../../../../pic32c/lib/thumb/v7e-m+fp/hard\libc-musl.a(__io_file_needed.o)
 .comment       0x00000000       0x2c c:/program files/microchip/xc32/v4.21/bin/bin/../../lib/gcc/pic32c/8.3.1/../../../../pic32c/lib/thumb/v7e-m+fp/hard\libc-musl.a(__io_file_needed.o)
 .note.GNU-stack
                0x00000000        0x0 c:/program files/microchip/xc32/v4.21/bin/bin/../../lib/gcc/pic32c/8.3.1/../../../../pic32c/lib/thumb/v7e-m+fp/hard\libc-musl.a(__io_file_needed.o)
 .debug_frame   0x00000000       0x20 c:/program files/microchip/xc32/v4.21/bin/bin/../../lib/gcc/pic32c/8.3.1/../../../../pic32c/lib/thumb/v7e-m+fp/hard\libc-musl.a(__io_file_needed.o)
 .ARM.attributes
                0x00000000       0x36 c:/program files/microchip/xc32/v4.21/bin/bin/../../lib/gcc/pic32c/8.3.1/../../../../pic32c/lib/thumb/v7e-m+fp/hard\libc-musl.a(__io_file_needed.o)
 .text          0x00000000        0x0 c:/program files/microchip/xc32/v4.21/bin/bin/../../lib/gcc/pic32c/8.3.1/../../../../pic32c/lib/thumb/v7e-m+fp/hard\libc-musl.a(__io_std_needed.o)
 .data          0x00000000        0x0 c:/program files/microchip/xc32/v4.21/bin/bin/../../lib/gcc/pic32c/8.3.1/../../../../pic32c/lib/thumb/v7e-m+fp/hard\libc-musl.a(__io_std_needed.o)
 .bss           0x00000000        0x0 c:/program files/microchip/xc32/v4.21/bin/bin/../../lib/gcc/pic32c/8.3.1/../../../../pic32c/lib/thumb/v7e-m+fp/hard\libc-musl.a(__io_std_needed.o)
 .xc_stack_usage
                0x00000000       0x1d c:/program files/microchip/xc32/v4.21/bin/bin/../../lib/gcc/pic32c/8.3.1/../../../../pic32c/lib/thumb/v7e-m+fp/hard\libc-musl.a(__io_std_needed.o)
 .xc_stack_usage.hdr
                0x00000000        0xe c:/program files/microchip/xc32/v4.21/bin/bin/../../lib/gcc/pic32c/8.3.1/../../../../pic32c/lib/thumb/v7e-m+fp/hard\libc-musl.a(__io_std_needed.o)
 .debug_info    0x00000000      0x395 c:/program files/microchip/xc32/v4.21/bin/bin/../../lib/gcc/pic32c/8.3.1/../../../../pic32c/lib/thumb/v7e-m+fp/hard\libc-musl.a(__io_std_needed.o)
 .debug_abbrev  0x00000000       0x6a c:/program files/microchip/xc32/v4.21/bin/bin/../../lib/gcc/pic32c/8.3.1/../../../../pic32c/lib/thumb/v7e-m+fp/hard\libc-musl.a(__io_std_needed.o)
 .debug_loc     0x00000000       0x2c c:/program files/microchip/xc32/v4.21/bin/bin/../../lib/gcc/pic32c/8.3.1/../../../../pic32c/lib/thumb/v7e-m+fp/hard\libc-musl.a(__io_std_needed.o)
 .debug_aranges
                0x00000000       0x20 c:/program files/microchip/xc32/v4.21/bin/bin/../../lib/gcc/pic32c/8.3.1/../../../../pic32c/lib/thumb/v7e-m+fp/hard\libc-musl.a(__io_std_needed.o)
 .debug_ranges  0x00000000       0x10 c:/program files/microchip/xc32/v4.21/bin/bin/../../lib/gcc/pic32c/8.3.1/../../../../pic32c/lib/thumb/v7e-m+fp/hard\libc-musl.a(__io_std_needed.o)
 .debug_line    0x00000000      0x141 c:/program files/microchip/xc32/v4.21/bin/bin/../../lib/gcc/pic32c/8.3.1/../../../../pic32c/lib/thumb/v7e-m+fp/hard\libc-musl.a(__io_std_needed.o)
 .debug_str     0x00000000       0x6b c:/program files/microchip/xc32/v4.21/bin/bin/../../lib/gcc/pic32c/8.3.1/../../../../pic32c/lib/thumb/v7e-m+fp/hard\libc-musl.a(__io_std_needed.o)
 .comment       0x00000000       0x2c c:/program files/microchip/xc32/v4.21/bin/bin/../../lib/gcc/pic32c/8.3.1/../../../../pic32c/lib/thumb/v7e-m+fp/hard\libc-musl.a(__io_std_needed.o)
 .note.GNU-stack
                0x00000000        0x0 c:/program files/microchip/xc32/v4.21/bin/bin/../../lib/gcc/pic32c/8.3.1/../../../../pic32c/lib/thumb/v7e-m+fp/hard\libc-musl.a(__io_std_needed.o)
 .debug_frame   0x00000000       0x2c c:/program files/microchip/xc32/v4.21/bin/bin/../../lib/gcc/pic32c/8.3.1/../../../../pic32c/lib/thumb/v7e-m+fp/hard\libc-musl.a(__io_std_needed.o)
 .ARM.attributes
                0x00000000       0x36 c:/program files/microchip/xc32/v4.21/bin/bin/../../lib/gcc/pic32c/8.3.1/../../../../pic32c/lib/thumb/v7e-m+fp/hard\libc-musl.a(__io_std_needed.o)
 .text          0x00000000        0x0 c:/program files/microchip/xc32/v4.21/bin/bin/../../lib/gcc/pic32c/8.3.1/../../../../pic32c/lib/thumb/v7e-m+fp/hard\libc-musl.a(__out.o)
 .data          0x00000000        0x0 c:/program files/microchip/xc32/v4.21/bin/bin/../../lib/gcc/pic32c/8.3.1/../../../../pic32c/lib/thumb/v7e-m+fp/hard\libc-musl.a(__out.o)
 .bss           0x00000000        0x0 c:/program files/microchip/xc32/v4.21/bin/bin/../../lib/gcc/pic32c/8.3.1/../../../../pic32c/lib/thumb/v7e-m+fp/hard\libc-musl.a(__out.o)
 .xc_stack_usage
                0x00000000       0x2d c:/program files/microchip/xc32/v4.21/bin/bin/../../lib/gcc/pic32c/8.3.1/../../../../pic32c/lib/thumb/v7e-m+fp/hard\libc-musl.a(__out.o)
 .xc_stack_usage.hdr
                0x00000000        0xe c:/program files/microchip/xc32/v4.21/bin/bin/../../lib/gcc/pic32c/8.3.1/../../../../pic32c/lib/thumb/v7e-m+fp/hard\libc-musl.a(__out.o)
 .text          0x00000000        0x0 c:/program files/microchip/xc32/v4.21/bin/bin/../../lib/gcc/pic32c/8.3.1/../../../../pic32c/lib/thumb/v7e-m+fp/hard\libc-musl.a(__putc.o)
 .data          0x00000000        0x0 c:/program files/microchip/xc32/v4.21/bin/bin/../../lib/gcc/pic32c/8.3.1/../../../../pic32c/lib/thumb/v7e-m+fp/hard\libc-musl.a(__putc.o)
 .bss           0x00000000        0x0 c:/program files/microchip/xc32/v4.21/bin/bin/../../lib/gcc/pic32c/8.3.1/../../../../pic32c/lib/thumb/v7e-m+fp/hard\libc-musl.a(__putc.o)
 .xc_stack_usage
                0x00000000       0x14 c:/program files/microchip/xc32/v4.21/bin/bin/../../lib/gcc/pic32c/8.3.1/../../../../pic32c/lib/thumb/v7e-m+fp/hard\libc-musl.a(__putc.o)
 .xc_stack_usage.hdr
                0x00000000        0xe c:/program files/microchip/xc32/v4.21/bin/bin/../../lib/gcc/pic32c/8.3.1/../../../../pic32c/lib/thumb/v7e-m+fp/hard\libc-musl.a(__putc.o)
 .text          0x00000000        0x0 c:/program files/microchip/xc32/v4.21/bin/bin/../../lib/gcc/pic32c/8.3.1/../../../../pic32c/lib/thumb/v7e-m+fp/hard\libc-musl.a(__stderr.o)
 .data          0x00000000       0x60 c:/program files/microchip/xc32/v4.21/bin/bin/../../lib/gcc/pic32c/8.3.1/../../../../pic32c/lib/thumb/v7e-m+fp/hard\libc-musl.a(__stderr.o)
 .bss           0x00000000        0x0 c:/program files/microchip/xc32/v4.21/bin/bin/../../lib/gcc/pic32c/8.3.1/../../../../pic32c/lib/thumb/v7e-m+fp/hard\libc-musl.a(__stderr.o)
 .xc_stack_usage
                0x00000000       0x50 c:/program files/microchip/xc32/v4.21/bin/bin/../../lib/gcc/pic32c/8.3.1/../../../../pic32c/lib/thumb/v7e-m+fp/hard\libc-musl.a(__stderr.o)
 .text.__get_stderr
                0x00000000        0x8 c:/program files/microchip/xc32/v4.21/bin/bin/../../lib/gcc/pic32c/8.3.1/../../../../pic32c/lib/thumb/v7e-m+fp/hard\libc-musl.a(__stderr.o)
 .xc_stack_usage.hdr
                0x00000000        0xe c:/program files/microchip/xc32/v4.21/bin/bin/../../lib/gcc/pic32c/8.3.1/../../../../pic32c/lib/thumb/v7e-m+fp/hard\libc-musl.a(__stderr.o)
 .text          0x00000000        0x0 c:/program files/microchip/xc32/v4.21/bin/bin/../../lib/gcc/pic32c/8.3.1/../../../../pic32c/lib/thumb/v7e-m+fp/hard\libc-musl.a(__stdio_close.o)
 .data          0x00000000        0x0 c:/program files/microchip/xc32/v4.21/bin/bin/../../lib/gcc/pic32c/8.3.1/../../../../pic32c/lib/thumb/v7e-m+fp/hard\libc-musl.a(__stdio_close.o)
 .bss           0x00000000        0x0 c:/program files/microchip/xc32/v4.21/bin/bin/../../lib/gcc/pic32c/8.3.1/../../../../pic32c/lib/thumb/v7e-m+fp/hard\libc-musl.a(__stdio_close.o)
 .xc_stack_usage
                0x00000000       0x39 c:/program files/microchip/xc32/v4.21/bin/bin/../../lib/gcc/pic32c/8.3.1/../../../../pic32c/lib/thumb/v7e-m+fp/hard\libc-musl.a(__stdio_close.o)
 .text.__stdio_close
                0x00000000       0x44 c:/program files/microchip/xc32/v4.21/bin/bin/../../lib/gcc/pic32c/8.3.1/../../../../pic32c/lib/thumb/v7e-m+fp/hard\libc-musl.a(__stdio_close.o)
 .xc_stack_usage.hdr
                0x00000000        0xe c:/program files/microchip/xc32/v4.21/bin/bin/../../lib/gcc/pic32c/8.3.1/../../../../pic32c/lib/thumb/v7e-m+fp/hard\libc-musl.a(__stdio_close.o)
 .text          0x00000000        0x0 c:/program files/microchip/xc32/v4.21/bin/bin/../../lib/gcc/pic32c/8.3.1/../../../../pic32c/lib/thumb/v7e-m+fp/hard\libc-musl.a(__stdio_exit.o)
 .data          0x00000000        0x0 c:/program files/microchip/xc32/v4.21/bin/bin/../../lib/gcc/pic32c/8.3.1/../../../../pic32c/lib/thumb/v7e-m+fp/hard\libc-musl.a(__stdio_exit.o)
 .bss           0x00000000        0x4 c:/program files/microchip/xc32/v4.21/bin/bin/../../lib/gcc/pic32c/8.3.1/../../../../pic32c/lib/thumb/v7e-m+fp/hard\libc-musl.a(__stdio_exit.o)
 .xc_stack_usage
                0x00000000       0x45 c:/program files/microchip/xc32/v4.21/bin/bin/../../lib/gcc/pic32c/8.3.1/../../../../pic32c/lib/thumb/v7e-m+fp/hard\libc-musl.a(__stdio_exit.o)
 .text.__dummy  0x00000000        0x2 c:/program files/microchip/xc32/v4.21/bin/bin/../../lib/gcc/pic32c/8.3.1/../../../../pic32c/lib/thumb/v7e-m+fp/hard\libc-musl.a(__stdio_exit.o)
 .text.__dummy1
                0x00000000        0x4 c:/program files/microchip/xc32/v4.21/bin/bin/../../lib/gcc/pic32c/8.3.1/../../../../pic32c/lib/thumb/v7e-m+fp/hard\libc-musl.a(__stdio_exit.o)
 .text.__stdio_exit
                0x00000000       0x34 c:/program files/microchip/xc32/v4.21/bin/bin/../../lib/gcc/pic32c/8.3.1/../../../../pic32c/lib/thumb/v7e-m+fp/hard\libc-musl.a(__stdio_exit.o)
 .xc_stack_usage.hdr
                0x00000000        0xe c:/program files/microchip/xc32/v4.21/bin/bin/../../lib/gcc/pic32c/8.3.1/../../../../pic32c/lib/thumb/v7e-m+fp/hard\libc-musl.a(__stdio_exit.o)
 .debug_info    0x00000000      0x58c c:/program files/microchip/xc32/v4.21/bin/bin/../../lib/gcc/pic32c/8.3.1/../../../../pic32c/lib/thumb/v7e-m+fp/hard\libc-musl.a(__stdio_exit.o)
 .debug_abbrev  0x00000000      0x157 c:/program files/microchip/xc32/v4.21/bin/bin/../../lib/gcc/pic32c/8.3.1/../../../../pic32c/lib/thumb/v7e-m+fp/hard\libc-musl.a(__stdio_exit.o)
 .debug_loc     0x00000000       0x45 c:/program files/microchip/xc32/v4.21/bin/bin/../../lib/gcc/pic32c/8.3.1/../../../../pic32c/lib/thumb/v7e-m+fp/hard\libc-musl.a(__stdio_exit.o)
 .debug_aranges
                0x00000000       0x30 c:/program files/microchip/xc32/v4.21/bin/bin/../../lib/gcc/pic32c/8.3.1/../../../../pic32c/lib/thumb/v7e-m+fp/hard\libc-musl.a(__stdio_exit.o)
 .debug_ranges  0x00000000       0x20 c:/program files/microchip/xc32/v4.21/bin/bin/../../lib/gcc/pic32c/8.3.1/../../../../pic32c/lib/thumb/v7e-m+fp/hard\libc-musl.a(__stdio_exit.o)
 .debug_line    0x00000000      0x186 c:/program files/microchip/xc32/v4.21/bin/bin/../../lib/gcc/pic32c/8.3.1/../../../../pic32c/lib/thumb/v7e-m+fp/hard\libc-musl.a(__stdio_exit.o)
 .debug_str     0x00000000        0x0 c:/program files/microchip/xc32/v4.21/bin/bin/../../lib/gcc/pic32c/8.3.1/../../../../pic32c/lib/thumb/v7e-m+fp/hard\libc-musl.a(__stdio_exit.o)
 .comment       0x00000000       0x2c c:/program files/microchip/xc32/v4.21/bin/bin/../../lib/gcc/pic32c/8.3.1/../../../../pic32c/lib/thumb/v7e-m+fp/hard\libc-musl.a(__stdio_exit.o)
 .note.GNU-stack
                0x00000000        0x0 c:/program files/microchip/xc32/v4.21/bin/bin/../../lib/gcc/pic32c/8.3.1/../../../../pic32c/lib/thumb/v7e-m+fp/hard\libc-musl.a(__stdio_exit.o)
 .debug_frame   0x00000000       0x48 c:/program files/microchip/xc32/v4.21/bin/bin/../../lib/gcc/pic32c/8.3.1/../../../../pic32c/lib/thumb/v7e-m+fp/hard\libc-musl.a(__stdio_exit.o)
 .ARM.attributes
                0x00000000       0x36 c:/program files/microchip/xc32/v4.21/bin/bin/../../lib/gcc/pic32c/8.3.1/../../../../pic32c/lib/thumb/v7e-m+fp/hard\libc-musl.a(__stdio_exit.o)
 .text          0x00000000        0x0 c:/program files/microchip/xc32/v4.21/bin/bin/../../lib/gcc/pic32c/8.3.1/../../../../pic32c/lib/thumb/v7e-m+fp/hard\libc-musl.a(__stdio_write.o)
 .data          0x00000000        0x0 c:/program files/microchip/xc32/v4.21/bin/bin/../../lib/gcc/pic32c/8.3.1/../../../../pic32c/lib/thumb/v7e-m+fp/hard\libc-musl.a(__stdio_write.o)
 .bss           0x00000000        0x0 c:/program files/microchip/xc32/v4.21/bin/bin/../../lib/gcc/pic32c/8.3.1/../../../../pic32c/lib/thumb/v7e-m+fp/hard\libc-musl.a(__stdio_write.o)
 .xc_stack_usage
                0x00000000       0x42 c:/program files/microchip/xc32/v4.21/bin/bin/../../lib/gcc/pic32c/8.3.1/../../../../pic32c/lib/thumb/v7e-m+fp/hard\libc-musl.a(__stdio_write.o)
 .xc_stack_usage.hdr
                0x00000000        0xe c:/program files/microchip/xc32/v4.21/bin/bin/../../lib/gcc/pic32c/8.3.1/../../../../pic32c/lib/thumb/v7e-m+fp/hard\libc-musl.a(__stdio_write.o)
 .text          0x00000000        0x0 c:/program files/microchip/xc32/v4.21/bin/bin/../../lib/gcc/pic32c/8.3.1/../../../../pic32c/lib/thumb/v7e-m+fp/hard\libc-musl.a(__stdout.o)
 .bss           0x00000000        0x0 c:/program files/microchip/xc32/v4.21/bin/bin/../../lib/gcc/pic32c/8.3.1/../../../../pic32c/lib/thumb/v7e-m+fp/hard\libc-musl.a(__stdout.o)
 .xc_stack_usage
                0x00000000       0x50 c:/program files/microchip/xc32/v4.21/bin/bin/../../lib/gcc/pic32c/8.3.1/../../../../pic32c/lib/thumb/v7e-m+fp/hard\libc-musl.a(__stdout.o)
 .text.__dummy  0x00000000        0x2 c:/program files/microchip/xc32/v4.21/bin/bin/../../lib/gcc/pic32c/8.3.1/../../../../pic32c/lib/thumb/v7e-m+fp/hard\libc-musl.a(__stdout.o)
 .xc_stack_usage.hdr
                0x00000000        0xe c:/program files/microchip/xc32/v4.21/bin/bin/../../lib/gcc/pic32c/8.3.1/../../../../pic32c/lib/thumb/v7e-m+fp/hard\libc-musl.a(__stdout.o)
 .text          0x00000000        0x0 c:/program files/microchip/xc32/v4.21/bin/bin/../../lib/gcc/pic32c/8.3.1/../../../../pic32c/lib/thumb/v7e-m+fp/hard\libc-musl.a(__towrite.o)
 .data          0x00000000        0x0 c:/program files/microchip/xc32/v4.21/bin/bin/../../lib/gcc/pic32c/8.3.1/../../../../pic32c/lib/thumb/v7e-m+fp/hard\libc-musl.a(__towrite.o)
 .bss           0x00000000        0x0 c:/program files/microchip/xc32/v4.21/bin/bin/../../lib/gcc/pic32c/8.3.1/../../../../pic32c/lib/thumb/v7e-m+fp/hard\libc-musl.a(__towrite.o)
 .xc_stack_usage
                0x00000000       0x2c c:/program files/microchip/xc32/v4.21/bin/bin/../../lib/gcc/pic32c/8.3.1/../../../../pic32c/lib/thumb/v7e-m+fp/hard\libc-musl.a(__towrite.o)
 .text.__dummy  0x00000000        0x4 c:/program files/microchip/xc32/v4.21/bin/bin/../../lib/gcc/pic32c/8.3.1/../../../../pic32c/lib/thumb/v7e-m+fp/hard\libc-musl.a(__towrite.o)
 .xc_stack_usage.hdr
                0x00000000        0xe c:/program files/microchip/xc32/v4.21/bin/bin/../../lib/gcc/pic32c/8.3.1/../../../../pic32c/lib/thumb/v7e-m+fp/hard\libc-musl.a(__towrite.o)
 .text          0x00000000        0x0 c:/program files/microchip/xc32/v4.21/bin/bin/../../lib/gcc/pic32c/8.3.1/../../../../pic32c/lib/thumb/v7e-m+fp/hard\libc-musl.a(writev.o)
 .data          0x00000000        0x0 c:/program files/microchip/xc32/v4.21/bin/bin/../../lib/gcc/pic32c/8.3.1/../../../../pic32c/lib/thumb/v7e-m+fp/hard\libc-musl.a(writev.o)
 .bss           0x00000000        0x0 c:/program files/microchip/xc32/v4.21/bin/bin/../../lib/gcc/pic32c/8.3.1/../../../../pic32c/lib/thumb/v7e-m+fp/hard\libc-musl.a(writev.o)
 .xc_stack_usage
                0x00000000       0x16 c:/program files/microchip/xc32/v4.21/bin/bin/../../lib/gcc/pic32c/8.3.1/../../../../pic32c/lib/thumb/v7e-m+fp/hard\libc-musl.a(writev.o)
 .xc_stack_usage.hdr
                0x00000000        0xe c:/program files/microchip/xc32/v4.21/bin/bin/../../lib/gcc/pic32c/8.3.1/../../../../pic32c/lib/thumb/v7e-m+fp/hard\libc-musl.a(writev.o)
 .text          0x00000000        0x0 c:/program files/microchip/xc32/v4.21/bin/bin/../../lib/gcc/pic32c/8.3.1/../../../../pic32c/lib/thumb/v7e-m+fp/hard\libc-musl.a(__overflow.o)
 .data          0x00000000        0x0 c:/program files/microchip/xc32/v4.21/bin/bin/../../lib/gcc/pic32c/8.3.1/../../../../pic32c/lib/thumb/v7e-m+fp/hard\libc-musl.a(__overflow.o)
 .bss           0x00000000        0x0 c:/program files/microchip/xc32/v4.21/bin/bin/../../lib/gcc/pic32c/8.3.1/../../../../pic32c/lib/thumb/v7e-m+fp/hard\libc-musl.a(__overflow.o)
 .xc_stack_usage
                0x00000000       0x18 c:/program files/microchip/xc32/v4.21/bin/bin/../../lib/gcc/pic32c/8.3.1/../../../../pic32c/lib/thumb/v7e-m+fp/hard\libc-musl.a(__overflow.o)
 .xc_stack_usage.hdr
                0x00000000        0xe c:/program files/microchip/xc32/v4.21/bin/bin/../../lib/gcc/pic32c/8.3.1/../../../../pic32c/lib/thumb/v7e-m+fp/hard\libc-musl.a(__overflow.o)
 .text          0x00000000        0x0 c:/program files/microchip/xc32/v4.21/bin/bin/../../lib/gcc/pic32c/8.3.1/../../../../pic32c/lib/thumb/v7e-m+fp/hard\libc-musl.a(__fclose.o)
 .data          0x00000000        0x0 c:/program files/microchip/xc32/v4.21/bin/bin/../../lib/gcc/pic32c/8.3.1/../../../../pic32c/lib/thumb/v7e-m+fp/hard\libc-musl.a(__fclose.o)
 .bss           0x00000000        0x0 c:/program files/microchip/xc32/v4.21/bin/bin/../../lib/gcc/pic32c/8.3.1/../../../../pic32c/lib/thumb/v7e-m+fp/hard\libc-musl.a(__fclose.o)
 .xc_stack_usage
                0x00000000       0x16 c:/program files/microchip/xc32/v4.21/bin/bin/../../lib/gcc/pic32c/8.3.1/../../../../pic32c/lib/thumb/v7e-m+fp/hard\libc-musl.a(__fclose.o)
 .text.__fclose
                0x00000000        0xc c:/program files/microchip/xc32/v4.21/bin/bin/../../lib/gcc/pic32c/8.3.1/../../../../pic32c/lib/thumb/v7e-m+fp/hard\libc-musl.a(__fclose.o)
 .xc_stack_usage.hdr
                0x00000000        0xe c:/program files/microchip/xc32/v4.21/bin/bin/../../lib/gcc/pic32c/8.3.1/../../../../pic32c/lib/thumb/v7e-m+fp/hard\libc-musl.a(__fclose.o)
 .debug_info    0x00000000      0x42c c:/program files/microchip/xc32/v4.21/bin/bin/../../lib/gcc/pic32c/8.3.1/../../../../pic32c/lib/thumb/v7e-m+fp/hard\libc-musl.a(__fclose.o)
 .debug_abbrev  0x00000000       0xc4 c:/program files/microchip/xc32/v4.21/bin/bin/../../lib/gcc/pic32c/8.3.1/../../../../pic32c/lib/thumb/v7e-m+fp/hard\libc-musl.a(__fclose.o)
 .debug_loc     0x00000000       0x74 c:/program files/microchip/xc32/v4.21/bin/bin/../../lib/gcc/pic32c/8.3.1/../../../../pic32c/lib/thumb/v7e-m+fp/hard\libc-musl.a(__fclose.o)
 .debug_aranges
                0x00000000       0x20 c:/program files/microchip/xc32/v4.21/bin/bin/../../lib/gcc/pic32c/8.3.1/../../../../pic32c/lib/thumb/v7e-m+fp/hard\libc-musl.a(__fclose.o)
 .debug_ranges  0x00000000       0x10 c:/program files/microchip/xc32/v4.21/bin/bin/../../lib/gcc/pic32c/8.3.1/../../../../pic32c/lib/thumb/v7e-m+fp/hard\libc-musl.a(__fclose.o)
 .debug_line    0x00000000      0x159 c:/program files/microchip/xc32/v4.21/bin/bin/../../lib/gcc/pic32c/8.3.1/../../../../pic32c/lib/thumb/v7e-m+fp/hard\libc-musl.a(__fclose.o)
 .debug_str     0x00000000        0x0 c:/program files/microchip/xc32/v4.21/bin/bin/../../lib/gcc/pic32c/8.3.1/../../../../pic32c/lib/thumb/v7e-m+fp/hard\libc-musl.a(__fclose.o)
 .comment       0x00000000       0x2c c:/program files/microchip/xc32/v4.21/bin/bin/../../lib/gcc/pic32c/8.3.1/../../../../pic32c/lib/thumb/v7e-m+fp/hard\libc-musl.a(__fclose.o)
 .note.GNU-stack
                0x00000000        0x0 c:/program files/microchip/xc32/v4.21/bin/bin/../../lib/gcc/pic32c/8.3.1/../../../../pic32c/lib/thumb/v7e-m+fp/hard\libc-musl.a(__fclose.o)
 .debug_frame   0x00000000       0x20 c:/program files/microchip/xc32/v4.21/bin/bin/../../lib/gcc/pic32c/8.3.1/../../../../pic32c/lib/thumb/v7e-m+fp/hard\libc-musl.a(__fclose.o)
 .ARM.attributes
                0x00000000       0x36 c:/program files/microchip/xc32/v4.21/bin/bin/../../lib/gcc/pic32c/8.3.1/../../../../pic32c/lib/thumb/v7e-m+fp/hard\libc-musl.a(__fclose.o)
 .text          0x00000000        0x0 c:/program files/microchip/xc32/v4.21/bin/bin/../../lib/gcc/pic32c/8.3.1/../../../../pic32c/lib/thumb/v7e-m+fp/hard\libc-musl.a(__fopen.o)
 .data          0x00000000        0x0 c:/program files/microchip/xc32/v4.21/bin/bin/../../lib/gcc/pic32c/8.3.1/../../../../pic32c/lib/thumb/v7e-m+fp/hard\libc-musl.a(__fopen.o)
 .bss           0x00000000        0x0 c:/program files/microchip/xc32/v4.21/bin/bin/../../lib/gcc/pic32c/8.3.1/../../../../pic32c/lib/thumb/v7e-m+fp/hard\libc-musl.a(__fopen.o)
 .xc_stack_usage
                0x00000000       0x43 c:/program files/microchip/xc32/v4.21/bin/bin/../../lib/gcc/pic32c/8.3.1/../../../../pic32c/lib/thumb/v7e-m+fp/hard\libc-musl.a(__fopen.o)
 .text.__dummy  0x00000000        0x4 c:/program files/microchip/xc32/v4.21/bin/bin/../../lib/gcc/pic32c/8.3.1/../../../../pic32c/lib/thumb/v7e-m+fp/hard\libc-musl.a(__fopen.o)
 .text.__fopen_std
                0x00000000       0x30 c:/program files/microchip/xc32/v4.21/bin/bin/../../lib/gcc/pic32c/8.3.1/../../../../pic32c/lib/thumb/v7e-m+fp/hard\libc-musl.a(__fopen.o)
 .text.__fopen  0x00000000        0x8 c:/program files/microchip/xc32/v4.21/bin/bin/../../lib/gcc/pic32c/8.3.1/../../../../pic32c/lib/thumb/v7e-m+fp/hard\libc-musl.a(__fopen.o)
 .xc_stack_usage.hdr
                0x00000000        0xe c:/program files/microchip/xc32/v4.21/bin/bin/../../lib/gcc/pic32c/8.3.1/../../../../pic32c/lib/thumb/v7e-m+fp/hard\libc-musl.a(__fopen.o)
 .debug_info    0x00000000      0x573 c:/program files/microchip/xc32/v4.21/bin/bin/../../lib/gcc/pic32c/8.3.1/../../../../pic32c/lib/thumb/v7e-m+fp/hard\libc-musl.a(__fopen.o)
 .debug_abbrev  0x00000000      0x14f c:/program files/microchip/xc32/v4.21/bin/bin/../../lib/gcc/pic32c/8.3.1/../../../../pic32c/lib/thumb/v7e-m+fp/hard\libc-musl.a(__fopen.o)
 .debug_loc     0x00000000       0x94 c:/program files/microchip/xc32/v4.21/bin/bin/../../lib/gcc/pic32c/8.3.1/../../../../pic32c/lib/thumb/v7e-m+fp/hard\libc-musl.a(__fopen.o)
 .debug_aranges
                0x00000000       0x30 c:/program files/microchip/xc32/v4.21/bin/bin/../../lib/gcc/pic32c/8.3.1/../../../../pic32c/lib/thumb/v7e-m+fp/hard\libc-musl.a(__fopen.o)
 .debug_ranges  0x00000000       0x20 c:/program files/microchip/xc32/v4.21/bin/bin/../../lib/gcc/pic32c/8.3.1/../../../../pic32c/lib/thumb/v7e-m+fp/hard\libc-musl.a(__fopen.o)
 .debug_line    0x00000000      0x22b c:/program files/microchip/xc32/v4.21/bin/bin/../../lib/gcc/pic32c/8.3.1/../../../../pic32c/lib/thumb/v7e-m+fp/hard\libc-musl.a(__fopen.o)
 .debug_str     0x00000000        0x0 c:/program files/microchip/xc32/v4.21/bin/bin/../../lib/gcc/pic32c/8.3.1/../../../../pic32c/lib/thumb/v7e-m+fp/hard\libc-musl.a(__fopen.o)
 .comment       0x00000000       0x2c c:/program files/microchip/xc32/v4.21/bin/bin/../../lib/gcc/pic32c/8.3.1/../../../../pic32c/lib/thumb/v7e-m+fp/hard\libc-musl.a(__fopen.o)
 .note.GNU-stack
                0x00000000        0x0 c:/program files/microchip/xc32/v4.21/bin/bin/../../lib/gcc/pic32c/8.3.1/../../../../pic32c/lib/thumb/v7e-m+fp/hard\libc-musl.a(__fopen.o)
 .debug_frame   0x00000000       0x50 c:/program files/microchip/xc32/v4.21/bin/bin/../../lib/gcc/pic32c/8.3.1/../../../../pic32c/lib/thumb/v7e-m+fp/hard\libc-musl.a(__fopen.o)
 .ARM.attributes
                0x00000000       0x36 c:/program files/microchip/xc32/v4.21/bin/bin/../../lib/gcc/pic32c/8.3.1/../../../../pic32c/lib/thumb/v7e-m+fp/hard\libc-musl.a(__fopen.o)
 .text          0x00000000        0x0 c:/program files/microchip/xc32/v4.21/bin/bin/../../lib/gcc/pic32c/8.3.1/../../../../pic32c/lib/thumb/v7e-m+fp/hard\libc-musl.a(__fseeko.o)
 .data          0x00000000        0x0 c:/program files/microchip/xc32/v4.21/bin/bin/../../lib/gcc/pic32c/8.3.1/../../../../pic32c/lib/thumb/v7e-m+fp/hard\libc-musl.a(__fseeko.o)
 .bss           0x00000000        0x0 c:/program files/microchip/xc32/v4.21/bin/bin/../../lib/gcc/pic32c/8.3.1/../../../../pic32c/lib/thumb/v7e-m+fp/hard\libc-musl.a(__fseeko.o)
 .xc_stack_usage
                0x00000000       0x16 c:/program files/microchip/xc32/v4.21/bin/bin/../../lib/gcc/pic32c/8.3.1/../../../../pic32c/lib/thumb/v7e-m+fp/hard\libc-musl.a(__fseeko.o)
 .text.__fseeko
                0x00000000        0x4 c:/program files/microchip/xc32/v4.21/bin/bin/../../lib/gcc/pic32c/8.3.1/../../../../pic32c/lib/thumb/v7e-m+fp/hard\libc-musl.a(__fseeko.o)
 .xc_stack_usage.hdr
                0x00000000        0xe c:/program files/microchip/xc32/v4.21/bin/bin/../../lib/gcc/pic32c/8.3.1/../../../../pic32c/lib/thumb/v7e-m+fp/hard\libc-musl.a(__fseeko.o)
 .debug_info    0x00000000      0x4e5 c:/program files/microchip/xc32/v4.21/bin/bin/../../lib/gcc/pic32c/8.3.1/../../../../pic32c/lib/thumb/v7e-m+fp/hard\libc-musl.a(__fseeko.o)
 .debug_abbrev  0x00000000       0xcb c:/program files/microchip/xc32/v4.21/bin/bin/../../lib/gcc/pic32c/8.3.1/../../../../pic32c/lib/thumb/v7e-m+fp/hard\libc-musl.a(__fseeko.o)
 .debug_loc     0x00000000       0x6f c:/program files/microchip/xc32/v4.21/bin/bin/../../lib/gcc/pic32c/8.3.1/../../../../pic32c/lib/thumb/v7e-m+fp/hard\libc-musl.a(__fseeko.o)
 .debug_aranges
                0x00000000       0x20 c:/program files/microchip/xc32/v4.21/bin/bin/../../lib/gcc/pic32c/8.3.1/../../../../pic32c/lib/thumb/v7e-m+fp/hard\libc-musl.a(__fseeko.o)
 .debug_ranges  0x00000000       0x10 c:/program files/microchip/xc32/v4.21/bin/bin/../../lib/gcc/pic32c/8.3.1/../../../../pic32c/lib/thumb/v7e-m+fp/hard\libc-musl.a(__fseeko.o)
 .debug_line    0x00000000      0x148 c:/program files/microchip/xc32/v4.21/bin/bin/../../lib/gcc/pic32c/8.3.1/../../../../pic32c/lib/thumb/v7e-m+fp/hard\libc-musl.a(__fseeko.o)
 .debug_str     0x00000000        0x0 c:/program files/microchip/xc32/v4.21/bin/bin/../../lib/gcc/pic32c/8.3.1/../../../../pic32c/lib/thumb/v7e-m+fp/hard\libc-musl.a(__fseeko.o)
 .comment       0x00000000       0x2c c:/program files/microchip/xc32/v4.21/bin/bin/../../lib/gcc/pic32c/8.3.1/../../../../pic32c/lib/thumb/v7e-m+fp/hard\libc-musl.a(__fseeko.o)
 .note.GNU-stack
                0x00000000        0x0 c:/program files/microchip/xc32/v4.21/bin/bin/../../lib/gcc/pic32c/8.3.1/../../../../pic32c/lib/thumb/v7e-m+fp/hard\libc-musl.a(__fseeko.o)
 .debug_frame   0x00000000       0x20 c:/program files/microchip/xc32/v4.21/bin/bin/../../lib/gcc/pic32c/8.3.1/../../../../pic32c/lib/thumb/v7e-m+fp/hard\libc-musl.a(__fseeko.o)
 .ARM.attributes
                0x00000000       0x36 c:/program files/microchip/xc32/v4.21/bin/bin/../../lib/gcc/pic32c/8.3.1/../../../../pic32c/lib/thumb/v7e-m+fp/hard\libc-musl.a(__fseeko.o)
 .text          0x00000000        0x0 c:/program files/microchip/xc32/v4.21/bin/bin/../../lib/gcc/pic32c/8.3.1/../../../../pic32c/lib/thumb/v7e-m+fp/hard\libc-musl.a(__ftello.o)
 .data          0x00000000        0x0 c:/program files/microchip/xc32/v4.21/bin/bin/../../lib/gcc/pic32c/8.3.1/../../../../pic32c/lib/thumb/v7e-m+fp/hard\libc-musl.a(__ftello.o)
 .bss           0x00000000        0x0 c:/program files/microchip/xc32/v4.21/bin/bin/../../lib/gcc/pic32c/8.3.1/../../../../pic32c/lib/thumb/v7e-m+fp/hard\libc-musl.a(__ftello.o)
 .xc_stack_usage
                0x00000000       0x2f c:/program files/microchip/xc32/v4.21/bin/bin/../../lib/gcc/pic32c/8.3.1/../../../../pic32c/lib/thumb/v7e-m+fp/hard\libc-musl.a(__ftello.o)
 .text.__dummy  0x00000000       0x1c c:/program files/microchip/xc32/v4.21/bin/bin/../../lib/gcc/pic32c/8.3.1/../../../../pic32c/lib/thumb/v7e-m+fp/hard\libc-musl.a(__ftello.o)
 .text.__ftello_adj
                0x00000000        0x8 c:/program files/microchip/xc32/v4.21/bin/bin/../../lib/gcc/pic32c/8.3.1/../../../../pic32c/lib/thumb/v7e-m+fp/hard\libc-musl.a(__ftello.o)
 .xc_stack_usage.hdr
                0x00000000        0xe c:/program files/microchip/xc32/v4.21/bin/bin/../../lib/gcc/pic32c/8.3.1/../../../../pic32c/lib/thumb/v7e-m+fp/hard\libc-musl.a(__ftello.o)
 .debug_info    0x00000000      0x514 c:/program files/microchip/xc32/v4.21/bin/bin/../../lib/gcc/pic32c/8.3.1/../../../../pic32c/lib/thumb/v7e-m+fp/hard\libc-musl.a(__ftello.o)
 .debug_abbrev  0x00000000       0xf5 c:/program files/microchip/xc32/v4.21/bin/bin/../../lib/gcc/pic32c/8.3.1/../../../../pic32c/lib/thumb/v7e-m+fp/hard\libc-musl.a(__ftello.o)
 .debug_loc     0x00000000       0xaf c:/program files/microchip/xc32/v4.21/bin/bin/../../lib/gcc/pic32c/8.3.1/../../../../pic32c/lib/thumb/v7e-m+fp/hard\libc-musl.a(__ftello.o)
 .debug_aranges
                0x00000000       0x28 c:/program files/microchip/xc32/v4.21/bin/bin/../../lib/gcc/pic32c/8.3.1/../../../../pic32c/lib/thumb/v7e-m+fp/hard\libc-musl.a(__ftello.o)
 .debug_ranges  0x00000000       0x18 c:/program files/microchip/xc32/v4.21/bin/bin/../../lib/gcc/pic32c/8.3.1/../../../../pic32c/lib/thumb/v7e-m+fp/hard\libc-musl.a(__ftello.o)
 .debug_line    0x00000000      0x182 c:/program files/microchip/xc32/v4.21/bin/bin/../../lib/gcc/pic32c/8.3.1/../../../../pic32c/lib/thumb/v7e-m+fp/hard\libc-musl.a(__ftello.o)
 .debug_str     0x00000000        0x0 c:/program files/microchip/xc32/v4.21/bin/bin/../../lib/gcc/pic32c/8.3.1/../../../../pic32c/lib/thumb/v7e-m+fp/hard\libc-musl.a(__ftello.o)
 .comment       0x00000000       0x2c c:/program files/microchip/xc32/v4.21/bin/bin/../../lib/gcc/pic32c/8.3.1/../../../../pic32c/lib/thumb/v7e-m+fp/hard\libc-musl.a(__ftello.o)
 .note.GNU-stack
                0x00000000        0x0 c:/program files/microchip/xc32/v4.21/bin/bin/../../lib/gcc/pic32c/8.3.1/../../../../pic32c/lib/thumb/v7e-m+fp/hard\libc-musl.a(__ftello.o)
 .debug_frame   0x00000000       0x40 c:/program files/microchip/xc32/v4.21/bin/bin/../../lib/gcc/pic32c/8.3.1/../../../../pic32c/lib/thumb/v7e-m+fp/hard\libc-musl.a(__ftello.o)
 .ARM.attributes
                0x00000000       0x36 c:/program files/microchip/xc32/v4.21/bin/bin/../../lib/gcc/pic32c/8.3.1/../../../../pic32c/lib/thumb/v7e-m+fp/hard\libc-musl.a(__ftello.o)
 .text          0x00000000        0x0 c:/program files/microchip/xc32/v4.21/bin/bin/../../lib/gcc/pic32c/8.3.1/../../../../pic32c/lib/thumb/v7e-m+fp/hard\libc-musl.a(__fwrite.o)
 .data          0x00000000        0x0 c:/program files/microchip/xc32/v4.21/bin/bin/../../lib/gcc/pic32c/8.3.1/../../../../pic32c/lib/thumb/v7e-m+fp/hard\libc-musl.a(__fwrite.o)
 .bss           0x00000000        0x0 c:/program files/microchip/xc32/v4.21/bin/bin/../../lib/gcc/pic32c/8.3.1/../../../../pic32c/lib/thumb/v7e-m+fp/hard\libc-musl.a(__fwrite.o)
 .xc_stack_usage
                0x00000000       0x36 c:/program files/microchip/xc32/v4.21/bin/bin/../../lib/gcc/pic32c/8.3.1/../../../../pic32c/lib/thumb/v7e-m+fp/hard\libc-musl.a(__fwrite.o)
 .xc_stack_usage.hdr
                0x00000000        0xe c:/program files/microchip/xc32/v4.21/bin/bin/../../lib/gcc/pic32c/8.3.1/../../../../pic32c/lib/thumb/v7e-m+fp/hard\libc-musl.a(__fwrite.o)
 .xc_stack_usage.hdr
                0x00000000        0xe c:/program files/microchip/xc32/v4.21/bin/bin/../../lib/gcc/pic32c/8.3.1/../../../../pic32c/lib/thumb/v7e-m+fp/hard\libm-emfloat.a(fma.o)
 .xc_stack_usage
                0x00000000       0x11 c:/program files/microchip/xc32/v4.21/bin/bin/../../lib/gcc/pic32c/8.3.1/../../../../pic32c/lib/thumb/v7e-m+fp/hard\libm-emfloat.a(fma.o)
 .xc_stack_usage.hdr
                0x00000000        0xe c:/program files/microchip/xc32/v4.21/bin/bin/../../lib/gcc/pic32c/8.3.1/../../../../pic32c/lib/thumb/v7e-m+fp/hard\libm-emfloat.a(floor.o)
 .xc_stack_usage
                0x00000000       0x13 c:/program files/microchip/xc32/v4.21/bin/bin/../../lib/gcc/pic32c/8.3.1/../../../../pic32c/lib/thumb/v7e-m+fp/hard\libm-emfloat.a(floor.o)
 .xc_stack_usage.hdr
                0x00000000        0xe c:/program files/microchip/xc32/v4.21/bin/bin/../../lib/gcc/pic32c/8.3.1/../../../../pic32c/lib/thumb/v7e-m+fp/hard\libm-emfloat.a(__aeabi_dcmple.o)
 .xc_stack_usage
                0x00000000       0x1c c:/program files/microchip/xc32/v4.21/bin/bin/../../lib/gcc/pic32c/8.3.1/../../../../pic32c/lib/thumb/v7e-m+fp/hard\libm-emfloat.a(__aeabi_dcmple.o)
 .xc_stack_usage.hdr
                0x00000000        0xe c:/program files/microchip/xc32/v4.21/bin/bin/../../lib/gcc/pic32c/8.3.1/../../../../pic32c/lib/thumb/v7e-m+fp/hard\libm-emfloat.a(__aeabi_dcmpeq.o)
 .xc_stack_usage
                0x00000000       0x1c c:/program files/microchip/xc32/v4.21/bin/bin/../../lib/gcc/pic32c/8.3.1/../../../../pic32c/lib/thumb/v7e-m+fp/hard\libm-emfloat.a(__aeabi_dcmpeq.o)
 .xc_stack_usage.hdr
                0x00000000        0xe c:/program files/microchip/xc32/v4.21/bin/bin/../../lib/gcc/pic32c/8.3.1/../../../../pic32c/lib/thumb/v7e-m+fp/hard\libm-emfloat.a(__aeabi_dcmpgt.o)
 .xc_stack_usage
                0x00000000       0x1c c:/program files/microchip/xc32/v4.21/bin/bin/../../lib/gcc/pic32c/8.3.1/../../../../pic32c/lib/thumb/v7e-m+fp/hard\libm-emfloat.a(__aeabi_dcmpgt.o)
 .xc_stack_usage.hdr
                0x00000000        0xe c:/program files/microchip/xc32/v4.21/bin/bin/../../lib/gcc/pic32c/8.3.1/../../../../pic32c/lib/thumb/v7e-m+fp/hard\libm-emfloat.a(__aeabi_dcmplt.o)
 .xc_stack_usage
                0x00000000       0x1c c:/program files/microchip/xc32/v4.21/bin/bin/../../lib/gcc/pic32c/8.3.1/../../../../pic32c/lib/thumb/v7e-m+fp/hard\libm-emfloat.a(__aeabi_dcmplt.o)
 .xc_stack_usage.hdr
                0x00000000        0xe c:/program files/microchip/xc32/v4.21/bin/bin/../../lib/gcc/pic32c/8.3.1/../../../../pic32c/lib/thumb/v7e-m+fp/hard\libm-emfloat.a(__aeabi_d2iz.o)
 .xc_stack_usage
                0x00000000       0x1a c:/program files/microchip/xc32/v4.21/bin/bin/../../lib/gcc/pic32c/8.3.1/../../../../pic32c/lib/thumb/v7e-m+fp/hard\libm-emfloat.a(__aeabi_d2iz.o)
 .data          0x00000000        0x0 c:/program files/microchip/xc32/v4.21/bin/bin/../../lib/gcc/pic32c/8.3.1/thumb/v7e-m+fp/hard\libgcc.a(_aeabi_uldivmod.o)
 .bss           0x00000000        0x0 c:/program files/microchip/xc32/v4.21/bin/bin/../../lib/gcc/pic32c/8.3.1/thumb/v7e-m+fp/hard\libgcc.a(_aeabi_uldivmod.o)
 .xc_stack_usage.hdr
                0x00000000        0xe c:/program files/microchip/xc32/v4.21/bin/bin/../../lib/gcc/pic32c/8.3.1/thumb/v7e-m+fp/hard\libgcc.a(_aeabi_uldivmod.o)
 .xc_stack_usage
                0x00000000       0x1e c:/program files/microchip/xc32/v4.21/bin/bin/../../lib/gcc/pic32c/8.3.1/thumb/v7e-m+fp/hard\libgcc.a(_aeabi_uldivmod.o)
 .data          0x00000000        0x0 c:/program files/microchip/xc32/v4.21/bin/bin/../../lib/gcc/pic32c/8.3.1/thumb/v7e-m+fp/hard\libgcc.a(_udivmoddi4.o)
 .bss           0x00000000        0x0 c:/program files/microchip/xc32/v4.21/bin/bin/../../lib/gcc/pic32c/8.3.1/thumb/v7e-m+fp/hard\libgcc.a(_udivmoddi4.o)
 .xc_stack_usage
                0x00000000       0x1a c:/program files/microchip/xc32/v4.21/bin/bin/../../lib/gcc/pic32c/8.3.1/thumb/v7e-m+fp/hard\libgcc.a(_udivmoddi4.o)
 .ARM.extab     0x00000000        0x0 c:/program files/microchip/xc32/v4.21/bin/bin/../../lib/gcc/pic32c/8.3.1/thumb/v7e-m+fp/hard\libgcc.a(_udivmoddi4.o)
 .xc_stack_usage.hdr
                0x00000000        0xe c:/program files/microchip/xc32/v4.21/bin/bin/../../lib/gcc/pic32c/8.3.1/thumb/v7e-m+fp/hard\libgcc.a(_udivmoddi4.o)
 .data          0x00000000        0x0 c:/program files/microchip/xc32/v4.21/bin/bin/../../lib/gcc/pic32c/8.3.1/thumb/v7e-m+fp/hard\libgcc.a(_dvmd_tls.o)
 .bss           0x00000000        0x0 c:/program files/microchip/xc32/v4.21/bin/bin/../../lib/gcc/pic32c/8.3.1/thumb/v7e-m+fp/hard\libgcc.a(_dvmd_tls.o)
 .xc_stack_usage.hdr
                0x00000000        0xe c:/program files/microchip/xc32/v4.21/bin/bin/../../lib/gcc/pic32c/8.3.1/thumb/v7e-m+fp/hard\libgcc.a(_dvmd_tls.o)
 .xc_stack_usage
                0x00000000       0x36 c:/program files/microchip/xc32/v4.21/bin/bin/../../lib/gcc/pic32c/8.3.1/thumb/v7e-m+fp/hard\libgcc.a(_dvmd_tls.o)
 .text          0x00000000        0x0 c:/program files/microchip/xc32/v4.21/bin/bin/../../lib/gcc/pic32c/8.3.1/../../../../pic32c/lib/thumb/v7e-m+fp/hard\libpic32c.a(close.o)
 .data          0x00000000        0x0 c:/program files/microchip/xc32/v4.21/bin/bin/../../lib/gcc/pic32c/8.3.1/../../../../pic32c/lib/thumb/v7e-m+fp/hard\libpic32c.a(close.o)
 .bss           0x00000000        0x0 c:/program files/microchip/xc32/v4.21/bin/bin/../../lib/gcc/pic32c/8.3.1/../../../../pic32c/lib/thumb/v7e-m+fp/hard\libpic32c.a(close.o)
 .xc_stack_usage
                0x00000000       0x13 c:/program files/microchip/xc32/v4.21/bin/bin/../../lib/gcc/pic32c/8.3.1/../../../../pic32c/lib/thumb/v7e-m+fp/hard\libpic32c.a(close.o)
 .gnu.warning.closestub
                0x00000000        0x0 c:/program files/microchip/xc32/v4.21/bin/bin/../../lib/gcc/pic32c/8.3.1/../../../../pic32c/lib/thumb/v7e-m+fp/hard\libpic32c.a(close.o)
 .xc_stack_usage.hdr
                0x00000000        0xe c:/program files/microchip/xc32/v4.21/bin/bin/../../lib/gcc/pic32c/8.3.1/../../../../pic32c/lib/thumb/v7e-m+fp/hard\libpic32c.a(close.o)
 .text          0x00000000        0x0 c:/program files/microchip/xc32/v4.21/bin/bin/../../lib/gcc/pic32c/8.3.1/../../../../pic32c/lib/thumb/v7e-m+fp/hard\libpic32c.a(lseek.o)
 .data          0x00000000        0x0 c:/program files/microchip/xc32/v4.21/bin/bin/../../lib/gcc/pic32c/8.3.1/../../../../pic32c/lib/thumb/v7e-m+fp/hard\libpic32c.a(lseek.o)
 .bss           0x00000000        0x0 c:/program files/microchip/xc32/v4.21/bin/bin/../../lib/gcc/pic32c/8.3.1/../../../../pic32c/lib/thumb/v7e-m+fp/hard\libpic32c.a(lseek.o)
 .xc_stack_usage
                0x00000000       0x13 c:/program files/microchip/xc32/v4.21/bin/bin/../../lib/gcc/pic32c/8.3.1/../../../../pic32c/lib/thumb/v7e-m+fp/hard\libpic32c.a(lseek.o)
 .xc_stack_usage.hdr
                0x00000000        0xe c:/program files/microchip/xc32/v4.21/bin/bin/../../lib/gcc/pic32c/8.3.1/../../../../pic32c/lib/thumb/v7e-m+fp/hard\libpic32c.a(lseek.o)
 .text          0x00000000        0x0 c:/program files/microchip/xc32/v4.21/bin/bin/../../lib/gcc/pic32c/8.3.1/../../../../pic32c/lib/thumb/v7e-m+fp/hard\libpic32c.a(sbrk.o)
 .data          0x00000000        0x0 c:/program files/microchip/xc32/v4.21/bin/bin/../../lib/gcc/pic32c/8.3.1/../../../../pic32c/lib/thumb/v7e-m+fp/hard\libpic32c.a(sbrk.o)
 .xc_stack_usage
                0x00000000       0x13 c:/program files/microchip/xc32/v4.21/bin/bin/../../lib/gcc/pic32c/8.3.1/../../../../pic32c/lib/thumb/v7e-m+fp/hard\libpic32c.a(sbrk.o)
 .xc_stack_usage.hdr
                0x00000000        0xe c:/program files/microchip/xc32/v4.21/bin/bin/../../lib/gcc/pic32c/8.3.1/../../../../pic32c/lib/thumb/v7e-m+fp/hard\libpic32c.a(sbrk.o)
 .text          0x00000000        0x0 c:/program files/microchip/xc32/v4.21/bin/bin/../../lib/gcc/pic32c/8.3.1/thumb/v7e-m+fp/hard/crtend.o
 .data          0x00000000        0x0 c:/program files/microchip/xc32/v4.21/bin/bin/../../lib/gcc/pic32c/8.3.1/thumb/v7e-m+fp/hard/crtend.o
 .bss           0x00000000        0x0 c:/program files/microchip/xc32/v4.21/bin/bin/../../lib/gcc/pic32c/8.3.1/thumb/v7e-m+fp/hard/crtend.o
 .eh_frame      0x00000000        0x4 c:/program files/microchip/xc32/v4.21/bin/bin/../../lib/gcc/pic32c/8.3.1/thumb/v7e-m+fp/hard/crtend.o
 .xc_stack_usage.hdr
                0x00000000        0xe c:/program files/microchip/xc32/v4.21/bin/bin/../../lib/gcc/pic32c/8.3.1/thumb/v7e-m+fp/hard/crtend.o
 .comment       0x00000000       0x2c c:/program files/microchip/xc32/v4.21/bin/bin/../../lib/gcc/pic32c/8.3.1/thumb/v7e-m+fp/hard/crtend.o
 .ARM.attributes
                0x00000000       0x32 c:/program files/microchip/xc32/v4.21/bin/bin/../../lib/gcc/pic32c/8.3.1/thumb/v7e-m+fp/hard/crtend.o
 .text          0x00000000        0x0 c:/program files/microchip/xc32/v4.21/bin/bin/../../lib/gcc/pic32c/8.3.1/thumb/v7e-m+fp/hard/crtn.o
 .data          0x00000000        0x0 c:/program files/microchip/xc32/v4.21/bin/bin/../../lib/gcc/pic32c/8.3.1/thumb/v7e-m+fp/hard/crtn.o
 .bss           0x00000000        0x0 c:/program files/microchip/xc32/v4.21/bin/bin/../../lib/gcc/pic32c/8.3.1/thumb/v7e-m+fp/hard/crtn.o
 .xc_stack_usage.hdr
                0x00000000        0xe c:/program files/microchip/xc32/v4.21/bin/bin/../../lib/gcc/pic32c/8.3.1/thumb/v7e-m+fp/hard/crtn.o

Memory Configuration

Name             Origin             Length             Attributes
rom              0x00000000         0x00100000         xrl
ram              0x20000000         0x00040000         xw !r
tcm              0x03000000         0x00000000         xw
bkupram          0x47000000         0x00002000
config_00804000  0x00804000         0x00000004
config_00804004  0x00804004         0x00000004
config_00804008  0x00804008         0x00000004
*default*        0x00000000         0xffffffff

Linker script and memory map

LOAD c:/program files/microchip/xc32/v4.21/bin/bin/../../lib/gcc/pic32c/8.3.1/thumb/v7e-m+fp/hard/crti.o
LOAD c:/program files/microchip/xc32/v4.21/bin/bin/../../lib/gcc/pic32c/8.3.1/thumb/v7e-m+fp/hard/crtbegin.o
LOAD build/default/production/_ext/60163342/plib_adc1.o
LOAD build/default/production/_ext/60163342/plib_adc0.o
LOAD build/default/production/_ext/1984496892/plib_clock.o
LOAD build/default/production/_ext/1865131932/plib_cmcc.o
LOAD build/default/production/_ext/60167341/plib_eic.o
LOAD build/default/production/_ext/1986646378/plib_evsys.o
LOAD build/default/production/_ext/1865468468/plib_nvic.o
LOAD build/default/production/_ext/1593096446/plib_nvmctrl.o
LOAD build/default/production/_ext/1865521619/plib_port.o
LOAD build/default/production/_ext/508257091/plib_sercom3_i2c_master.o
LOAD build/default/production/_ext/504274921/plib_sercom7_usart.o
LOAD build/default/production/_ext/504274921/plib_sercom6_usart.o
LOAD build/default/production/_ext/504274921/plib_sercom2_usart.o
LOAD build/default/production/_ext/504274921/plib_sercom5_usart.o
LOAD build/default/production/_ext/829342655/plib_tc0.o
LOAD build/default/production/_ext/829342655/plib_tc1.o
LOAD build/default/production/_ext/829342655/plib_tc5.o
LOAD build/default/production/_ext/60181570/plib_tcc4.o
LOAD build/default/production/_ext/163028504/xc32_monitor.o
LOAD build/default/production/_ext/1171490990/freertos_hooks.o
LOAD build/default/production/_ext/1171490990/libc_syscalls.o
LOAD build/default/production/_ext/1171490990/startup_xc32.o
LOAD build/default/production/_ext/1171490990/interrupts.o
LOAD build/default/production/_ext/1171490990/exceptions.o
LOAD build/default/production/_ext/1171490990/initialization.o
LOAD build/default/production/_ext/246609638/port.o
LOAD build/default/production/_ext/1665200909/heap_4.o
LOAD build/default/production/_ext/404212886/croutine.o
LOAD build/default/production/_ext/404212886/list.o
LOAD build/default/production/_ext/404212886/queue.o
LOAD build/default/production/_ext/404212886/stream_buffer.o
LOAD build/default/production/_ext/404212886/event_groups.o
LOAD build/default/production/_ext/404212886/timers.o
LOAD build/default/production/_ext/404212886/FreeRTOS_tasks.o
LOAD build/default/production/_ext/1360937237/main.o
LOAD build/default/production/_ext/504274921/plib_sercom1_usart.o
                0x00000001                __MPLAB_BUILD = 0x1
                0x00100000                __rom_end = (ORIGIN (rom) + LENGTH (rom))
                0x20040000                __ram_end = (ORIGIN (ram) + LENGTH (ram))

.config_00804000
 *(.config_00804000)

.config_00804004
 *(.config_00804004)

.config_00804008
 *(.config_00804008)

.vectors        0x00000000      0x260
                0x00000000                . = ALIGN (0x4)
                0x00000000                _sfixed = .
 *(.vectors .vectors.* .vectors_default .vectors_default.*)
 .vectors.exception_table
                0x00000000      0x260 build/default/production/_ext/1171490990/interrupts.o
                0x00000000                exception_table
 *(.isr_vector)
 *(.reset*)
 *(.after_vectors)

.text           0x00000260       0x20
                0x00000260                . = ALIGN (0x4)
 *(.glue_7t)
 .glue_7t       0x00000260        0x0 linker stubs
 *(.glue_7)
 .glue_7        0x00000260        0x0 linker stubs
 *(.gnu.linkonce.r.*)
 *(.ARM.extab* .gnu.linkonce.armextab.*)
                0x00000260                . = ALIGN (0x4)
 *(.init)
 .init          0x00000260        0x4 c:/program files/microchip/xc32/v4.21/bin/bin/../../lib/gcc/pic32c/8.3.1/thumb/v7e-m+fp/hard/crti.o
                0x00000260                _init
 .init          0x00000264        0x8 c:/program files/microchip/xc32/v4.21/bin/bin/../../lib/gcc/pic32c/8.3.1/thumb/v7e-m+fp/hard/crtn.o
                0x0000026c                . = ALIGN (0x4)
                0x0000026c                __preinit_array_start = .
 *(.preinit_array)
                0x0000026c                __preinit_array_end = .
                0x0000026c                . = ALIGN (0x4)
                0x0000026c                __init_array_start = .
 *(SORT_BY_NAME(.init_array.*))
 *(.init_array)
 .init_array    0x0000026c        0x4 c:/program files/microchip/xc32/v4.21/bin/bin/../../lib/gcc/pic32c/8.3.1/thumb/v7e-m+fp/hard/crtbegin.o
                0x00000270                __init_array_end = .
                0x00000270                . = ALIGN (0x4)
 *crtbegin.o(.ctors)
 *(EXCLUDE_FILE(*crtend.o) .ctors)
 *(SORT_BY_NAME(.ctors.*))
 *crtend.o(.ctors)
                0x00000270                . = ALIGN (0x4)
 *(.fini)
 .fini          0x00000270        0x4 c:/program files/microchip/xc32/v4.21/bin/bin/../../lib/gcc/pic32c/8.3.1/thumb/v7e-m+fp/hard/crti.o
                0x00000270                _fini
 .fini          0x00000274        0x8 c:/program files/microchip/xc32/v4.21/bin/bin/../../lib/gcc/pic32c/8.3.1/thumb/v7e-m+fp/hard/crtn.o
                0x0000027c                . = ALIGN (0x4)
                0x0000027c                __fini_array_start = .
 *(.fini_array)
 .fini_array    0x0000027c        0x4 c:/program files/microchip/xc32/v4.21/bin/bin/../../lib/gcc/pic32c/8.3.1/thumb/v7e-m+fp/hard/crtbegin.o
 *(SORT_BY_NAME(.fini_array.*))
                0x00000280                __fini_array_end = .
 *crtbegin.o(.dtors)
 *(EXCLUDE_FILE(*crtend.o) .dtors)
 *(SORT_BY_NAME(.dtors.*))
 *crtend.o(.dtors)
                0x00000280                . = ALIGN (0x4)
                0x00000280                _efixed = .
                [!provide]                PROVIDE (__exidx_start = .)

.ARM.exidx      0x00000280        0x8
 *(.ARM.exidx* .gnu.linkonce.armexidx.*)
 .ARM.exidx     0x00000280        0x8 c:/program files/microchip/xc32/v4.21/bin/bin/../../lib/gcc/pic32c/8.3.1/thumb/v7e-m+fp/hard\libgcc.a(_udivmoddi4.o)
                [!provide]                PROVIDE (__exidx_end = .)
                0x00000288                . = ALIGN (0x4)
                0x00000288                _etext = .

.bss            0x20000000        0x0
                0x20000000                . = ALIGN (0x4)
                0x20000000                __bss_start__ = .
                0x20000000                _sbss = .
                0x20000000                _szero = .
 *(COMMON)
                0x20000000                . = ALIGN (0x4)
                0x20000000                __bss_end__ = .
                0x20000000                _ebss = .
                0x20000000                _ezero = .
                0x20000000                . = ALIGN (0x4)
                0x20000000                _end = .
                0x2003ffff                _ram_end_ = ((ORIGIN (ram) + LENGTH (ram)) - 0x1)

.bkupram_bss
 *(.bkupram_bss .bkupram_bss.*)
 *(.pbss .pbss.*)
                0x00000200                _min_heap_size = 0x200
START GROUP
LOAD c:/program files/microchip/xc32/v4.21/bin/bin/../../lib/gcc/pic32c/8.3.1/../../../../pic32c/lib/thumb/v7e-m+fp/hard\libpic32c.a
LOAD c:/program files/microchip/xc32/v4.21/bin/bin/../../lib/gcc/pic32c/8.3.1/../../../../pic32c/lib/thumb/v7e-m+fp/hard\libm-emfloat.a
LOAD c:/program files/microchip/xc32/v4.21/bin/bin/../../lib/gcc/pic32c/8.3.1/../../../../pic32c/lib/thumb/v7e-m+fp/hard\libc-musl.a
LOAD c:/program files/microchip/xc32/v4.21/bin/bin/../../lib/gcc/pic32c/8.3.1/../../../../pic32c/lib/thumb/v7e-m+fp/hard\libm-emfloat.a
LOAD c:/program files/microchip/xc32/v4.21/bin/bin/../../lib/gcc/pic32c/8.3.1/thumb/v7e-m+fp/hard\libgcc.a
END GROUP
LOAD c:/program files/microchip/xc32/v4.21/bin/bin/../../lib/gcc/pic32c/8.3.1/thumb/v7e-m+fp/hard/crtend.o
LOAD c:/program files/microchip/xc32/v4.21/bin/bin/../../lib/gcc/pic32c/8.3.1/thumb/v7e-m+fp/hard/crtn.o
OUTPUT(dist/default/production/DC120_NO_APP_1.X.production.elf elf32-littlearm)
LOAD stack
LOAD data_init

.ARM.attributes
                0x00000000       0x32
 .ARM.attributes
                0x00000000       0x1e c:/program files/microchip/xc32/v4.21/bin/bin/../../lib/gcc/pic32c/8.3.1/thumb/v7e-m+fp/hard/crti.o
 .ARM.attributes
                0x0000001e       0x34 c:/program files/microchip/xc32/v4.21/bin/bin/../../lib/gcc/pic32c/8.3.1/thumb/v7e-m+fp/hard/crtbegin.o
 .ARM.attributes
                0x00000052       0x34 build/default/production/_ext/60163342/plib_adc1.o
 .ARM.attributes
                0x00000086       0x34 build/default/production/_ext/60163342/plib_adc0.o
 .ARM.attributes
                0x000000ba       0x34 build/default/production/_ext/1984496892/plib_clock.o
 .ARM.attributes
                0x000000ee       0x34 build/default/production/_ext/60167341/plib_eic.o
 .ARM.attributes
                0x00000122       0x34 build/default/production/_ext/1986646378/plib_evsys.o
 .ARM.attributes
                0x00000156       0x34 build/default/production/_ext/1865468468/plib_nvic.o
 .ARM.attributes
                0x0000018a       0x34 build/default/production/_ext/1593096446/plib_nvmctrl.o
 .ARM.attributes
                0x000001be       0x34 build/default/production/_ext/1865521619/plib_port.o
 .ARM.attributes
                0x000001f2       0x34 build/default/production/_ext/508257091/plib_sercom3_i2c_master.o
 .ARM.attributes
                0x00000226       0x34 build/default/production/_ext/504274921/plib_sercom7_usart.o
 .ARM.attributes
                0x0000025a       0x34 build/default/production/_ext/504274921/plib_sercom6_usart.o
 .ARM.attributes
                0x0000028e       0x34 build/default/production/_ext/504274921/plib_sercom2_usart.o
 .ARM.attributes
                0x000002c2       0x34 build/default/production/_ext/504274921/plib_sercom5_usart.o
 .ARM.attributes
                0x000002f6       0x34 build/default/production/_ext/829342655/plib_tc0.o
 .ARM.attributes
                0x0000032a       0x34 build/default/production/_ext/829342655/plib_tc1.o
 .ARM.attributes
                0x0000035e       0x34 build/default/production/_ext/829342655/plib_tc5.o
 .ARM.attributes
                0x00000392       0x34 build/default/production/_ext/60181570/plib_tcc4.o
 .ARM.attributes
                0x000003c6       0x34 build/default/production/_ext/163028504/xc32_monitor.o
 .ARM.attributes
                0x000003fa       0x34 build/default/production/_ext/1171490990/freertos_hooks.o
 .ARM.attributes
                0x0000042e       0x34 build/default/production/_ext/1171490990/startup_xc32.o
 .ARM.attributes
                0x00000462       0x34 build/default/production/_ext/1171490990/interrupts.o
 .ARM.attributes
                0x00000496       0x34 build/default/production/_ext/1171490990/exceptions.o
 .ARM.attributes
                0x000004ca       0x34 build/default/production/_ext/1171490990/initialization.o
 .ARM.attributes
                0x000004fe       0x34 build/default/production/_ext/246609638/port.o
 .ARM.attributes
                0x00000532       0x34 build/default/production/_ext/1665200909/heap_4.o
 .ARM.attributes
                0x00000566       0x34 build/default/production/_ext/404212886/list.o
 .ARM.attributes
                0x0000059a       0x34 build/default/production/_ext/404212886/queue.o
 .ARM.attributes
                0x000005ce       0x34 build/default/production/_ext/404212886/timers.o
 .ARM.attributes
                0x00000602       0x34 build/default/production/_ext/404212886/FreeRTOS_tasks.o
 .ARM.attributes
                0x00000636       0x34 build/default/production/_ext/1360937237/main.o
 .ARM.attributes
                0x0000066a       0x34 build/default/production/_ext/504274921/plib_sercom1_usart.o
 .ARM.attributes
                0x0000069e       0x34 c:/program files/microchip/xc32/v4.21/bin/bin/../../lib/gcc/pic32c/8.3.1/../../../../pic32c/lib/thumb/v7e-m+fp/hard\libpic32c.a(data_init_wrapper.o)
 .ARM.attributes
                0x000006d2       0x34 c:/program files/microchip/xc32/v4.21/bin/bin/../../lib/gcc/pic32c/8.3.1/../../../../pic32c/lib/thumb/v7e-m+fp/hard\libpic32c.a(data_init_0_1.o)
 .ARM.attributes
                0x00000706       0x20 c:/program files/microchip/xc32/v4.21/bin/bin/../../lib/gcc/pic32c/8.3.1/../../../../pic32c/lib/thumb/v7e-m+fp/hard\libm-emfloat.a(__aeabi_dsub.o)
 .ARM.attributes
                0x00000726       0x20 c:/program files/microchip/xc32/v4.21/bin/bin/../../lib/gcc/pic32c/8.3.1/../../../../pic32c/lib/thumb/v7e-m+fp/hard\libm-emfloat.a(__aeabi_dmul.o)
 .ARM.attributes
                0x00000746       0x20 c:/program files/microchip/xc32/v4.21/bin/bin/../../lib/gcc/pic32c/8.3.1/../../../../pic32c/lib/thumb/v7e-m+fp/hard\libm-emfloat.a(__aeabi_ddiv.o)
 .ARM.attributes
                0x00000766       0x20 c:/program files/microchip/xc32/v4.21/bin/bin/../../lib/gcc/pic32c/8.3.1/../../../../pic32c/lib/thumb/v7e-m+fp/hard\libm-emfloat.a(__aeabi_f2d.o)
 .ARM.attributes
                0x00000786       0x20 c:/program files/microchip/xc32/v4.21/bin/bin/../../lib/gcc/pic32c/8.3.1/../../../../pic32c/lib/thumb/v7e-m+fp/hard\libm-emfloat.a(__aeabi_d2f.o)
 .ARM.attributes
                0x000007a6       0x20 c:/program files/microchip/xc32/v4.21/bin/bin/../../lib/gcc/pic32c/8.3.1/../../../../pic32c/lib/thumb/v7e-m+fp/hard\libm-emfloat.a(__aeabi_dadd.o)
 .ARM.attributes
                0x000007c6       0x36 c:/program files/microchip/xc32/v4.21/bin/bin/../../lib/gcc/pic32c/8.3.1/../../../../pic32c/lib/thumb/v7e-m+fp/hard\libc-musl.a(__libc_start_main.o)
 .ARM.attributes
                0x000007fc       0x34 c:/program files/microchip/xc32/v4.21/bin/bin/../../lib/gcc/pic32c/8.3.1/../../../../pic32c/lib/thumb/v7e-m+fp/hard\libc-musl.a(libc.o)
 .ARM.attributes
                0x00000830       0x36 c:/program files/microchip/xc32/v4.21/bin/bin/../../lib/gcc/pic32c/8.3.1/../../../../pic32c/lib/thumb/v7e-m+fp/hard\libc-musl.a(__sio_printf_dfoux.o)
 .ARM.attributes
                0x00000866       0x36 c:/program files/microchip/xc32/v4.21/bin/bin/../../lib/gcc/pic32c/8.3.1/../../../../pic32c/lib/thumb/v7e-m+fp/hard\libc-musl.a(__fmt_d.o)
 .ARM.attributes
                0x0000089c       0x36 c:/program files/microchip/xc32/v4.21/bin/bin/../../lib/gcc/pic32c/8.3.1/../../../../pic32c/lib/thumb/v7e-m+fp/hard\libc-musl.a(__fmt_fp.o)
 .ARM.attributes
                0x000008d2       0x36 c:/program files/microchip/xc32/v4.21/bin/bin/../../lib/gcc/pic32c/8.3.1/../../../../pic32c/lib/thumb/v7e-m+fp/hard\libc-musl.a(__fmt_o.o)
 .ARM.attributes
                0x00000908       0x36 c:/program files/microchip/xc32/v4.21/bin/bin/../../lib/gcc/pic32c/8.3.1/../../../../pic32c/lib/thumb/v7e-m+fp/hard\libc-musl.a(__fmt_s.o)
 .ARM.attributes
                0x0000093e       0x36 c:/program files/microchip/xc32/v4.21/bin/bin/../../lib/gcc/pic32c/8.3.1/../../../../pic32c/lib/thumb/v7e-m+fp/hard\libc-musl.a(__fmt_u.o)
 .ARM.attributes
                0x00000974       0x36 c:/program files/microchip/xc32/v4.21/bin/bin/../../lib/gcc/pic32c/8.3.1/../../../../pic32c/lib/thumb/v7e-m+fp/hard\libc-musl.a(__fmt_x.o)
 .ARM.attributes
                0x000009aa       0x36 c:/program files/microchip/xc32/v4.21/bin/bin/../../lib/gcc/pic32c/8.3.1/../../../../pic32c/lib/thumb/v7e-m+fp/hard\libc-musl.a(__pop_float.o)
 .ARM.attributes
                0x000009e0       0x36 c:/program files/microchip/xc32/v4.21/bin/bin/../../lib/gcc/pic32c/8.3.1/../../../../pic32c/lib/thumb/v7e-m+fp/hard\libc-musl.a(__pop_int.o)
 .ARM.attributes
                0x00000a16       0x36 c:/program files/microchip/xc32/v4.21/bin/bin/../../lib/gcc/pic32c/8.3.1/../../../../pic32c/lib/thumb/v7e-m+fp/hard\libc-musl.a(__pop_ptr.o)
 .ARM.attributes
                0x00000a4c       0x36 c:/program files/microchip/xc32/v4.21/bin/bin/../../lib/gcc/pic32c/8.3.1/../../../../pic32c/lib/thumb/v7e-m+fp/hard\libc-musl.a(__printf_core.o)
 .ARM.attributes
                0x00000a82       0x36 c:/program files/microchip/xc32/v4.21/bin/bin/../../lib/gcc/pic32c/8.3.1/../../../../pic32c/lib/thumb/v7e-m+fp/hard\libc-musl.a(stdin.o)
 .ARM.attributes
                0x00000ab8       0x36 c:/program files/microchip/xc32/v4.21/bin/bin/../../lib/gcc/pic32c/8.3.1/../../../../pic32c/lib/thumb/v7e-m+fp/hard\libc-musl.a(stdout.o)
 .ARM.attributes
                0x00000aee       0x36 c:/program files/microchip/xc32/v4.21/bin/bin/../../lib/gcc/pic32c/8.3.1/../../../../pic32c/lib/thumb/v7e-m+fp/hard\libc-musl.a(puts.o)
 .ARM.attributes
                0x00000b24       0x36 c:/program files/microchip/xc32/v4.21/bin/bin/../../lib/gcc/pic32c/8.3.1/../../../../pic32c/lib/thumb/v7e-m+fp/hard\libc-musl.a(setbuf.o)
 .ARM.attributes
                0x00000b5a       0x36 c:/program files/microchip/xc32/v4.21/bin/bin/../../lib/gcc/pic32c/8.3.1/../../../../pic32c/lib/thumb/v7e-m+fp/hard\libc-musl.a(atoi.o)
 .ARM.attributes
                0x00000b90       0x36 c:/program files/microchip/xc32/v4.21/bin/bin/../../lib/gcc/pic32c/8.3.1/../../../../pic32c/lib/thumb/v7e-m+fp/hard\libc-musl.a(memcpy.o)
 .ARM.attributes
                0x00000bc6       0x36 c:/program files/microchip/xc32/v4.21/bin/bin/../../lib/gcc/pic32c/8.3.1/../../../../pic32c/lib/thumb/v7e-m+fp/hard\libc-musl.a(memset.o)
 .ARM.attributes
                0x00000bfc       0x36 c:/program files/microchip/xc32/v4.21/bin/bin/../../lib/gcc/pic32c/8.3.1/../../../../pic32c/lib/thumb/v7e-m+fp/hard\libc-musl.a(strlen.o)
 .ARM.attributes
                0x00000c32       0x36 c:/program files/microchip/xc32/v4.21/bin/bin/../../lib/gcc/pic32c/8.3.1/../../../../pic32c/lib/thumb/v7e-m+fp/hard\libc-musl.a(strcpy.o)
 .ARM.attributes
                0x00000c68       0x36 c:/program files/microchip/xc32/v4.21/bin/bin/../../lib/gcc/pic32c/8.3.1/../../../../pic32c/lib/thumb/v7e-m+fp/hard\libc-musl.a(tolower.o)
 .ARM.attributes
                0x00000c9e       0x36 c:/program files/microchip/xc32/v4.21/bin/bin/../../lib/gcc/pic32c/8.3.1/../../../../pic32c/lib/thumb/v7e-m+fp/hard\libc-musl.a(toupper.o)
 .ARM.attributes
                0x00000cd4       0x34 c:/program files/microchip/xc32/v4.21/bin/bin/../../lib/gcc/pic32c/8.3.1/../../../../pic32c/lib/thumb/v7e-m+fp/hard\libc-musl.a(__environ.o)
 .ARM.attributes
                0x00000d08       0x34 c:/program files/microchip/xc32/v4.21/bin/bin/../../lib/gcc/pic32c/8.3.1/../../../../pic32c/lib/thumb/v7e-m+fp/hard\libc-musl.a(__errno_location.o)
 .ARM.attributes
                0x00000d3c       0x36 c:/program files/microchip/xc32/v4.21/bin/bin/../../lib/gcc/pic32c/8.3.1/../../../../pic32c/lib/thumb/v7e-m+fp/hard\libc-musl.a(__int_vfprintf.o)
 .ARM.attributes
                0x00000d72       0x36 c:/program files/microchip/xc32/v4.21/bin/bin/../../lib/gcc/pic32c/8.3.1/../../../../pic32c/lib/thumb/v7e-m+fp/hard\libc-musl.a(fputs.o)
 .ARM.attributes
                0x00000da8       0x36 c:/program files/microchip/xc32/v4.21/bin/bin/../../lib/gcc/pic32c/8.3.1/../../../../pic32c/lib/thumb/v7e-m+fp/hard\libc-musl.a(__stdio_read.o)
 .ARM.attributes
                0x00000dde       0x36 c:/program files/microchip/xc32/v4.21/bin/bin/../../lib/gcc/pic32c/8.3.1/../../../../pic32c/lib/thumb/v7e-m+fp/hard\libc-musl.a(__towrite_rw.o)
 .ARM.attributes
                0x00000e14       0x36 c:/program files/microchip/xc32/v4.21/bin/bin/../../lib/gcc/pic32c/8.3.1/../../../../pic32c/lib/thumb/v7e-m+fp/hard\libc-musl.a(fwrite.o)
 .ARM.attributes
                0x00000e4a       0x36 c:/program files/microchip/xc32/v4.21/bin/bin/../../lib/gcc/pic32c/8.3.1/../../../../pic32c/lib/thumb/v7e-m+fp/hard\libc-musl.a(putc.o)
 .ARM.attributes
                0x00000e80       0x36 c:/program files/microchip/xc32/v4.21/bin/bin/../../lib/gcc/pic32c/8.3.1/../../../../pic32c/lib/thumb/v7e-m+fp/hard\libc-musl.a(setvbuf.o)
 .ARM.attributes
                0x00000eb6       0x36 c:/program files/microchip/xc32/v4.21/bin/bin/../../lib/gcc/pic32c/8.3.1/../../../../pic32c/lib/thumb/v7e-m+fp/hard\libc-musl.a(stpcpy.o)
 .ARM.attributes
                0x00000eec       0x36 c:/program files/microchip/xc32/v4.21/bin/bin/../../lib/gcc/pic32c/8.3.1/../../../../pic32c/lib/thumb/v7e-m+fp/hard\libc-musl.a(readv.o)
 .ARM.attributes
                0x00000f22       0x36 c:/program files/microchip/xc32/v4.21/bin/bin/../../lib/gcc/pic32c/8.3.1/../../../../pic32c/lib/thumb/v7e-m+fp/hard\libc-musl.a(malloc.o)
 .ARM.attributes
                0x00000f58       0x36 c:/program files/microchip/xc32/v4.21/bin/bin/../../lib/gcc/pic32c/8.3.1/../../../../pic32c/lib/thumb/v7e-m+fp/hard\libc-musl.a(expand_heap.o)
 .ARM.attributes
                0x00000f8e       0x36 c:/program files/microchip/xc32/v4.21/bin/bin/../../lib/gcc/pic32c/8.3.1/../../../../pic32c/lib/thumb/v7e-m+fp/hard\libc-musl.a(__init_stdio.o)
 .ARM.attributes
                0x00000fc4       0x36 c:/program files/microchip/xc32/v4.21/bin/bin/../../lib/gcc/pic32c/8.3.1/../../../../pic32c/lib/thumb/v7e-m+fp/hard\libc-musl.a(__out.o)
 .ARM.attributes
                0x00000ffa       0x36 c:/program files/microchip/xc32/v4.21/bin/bin/../../lib/gcc/pic32c/8.3.1/../../../../pic32c/lib/thumb/v7e-m+fp/hard\libc-musl.a(__putc.o)
 .ARM.attributes
                0x00001030       0x36 c:/program files/microchip/xc32/v4.21/bin/bin/../../lib/gcc/pic32c/8.3.1/../../../../pic32c/lib/thumb/v7e-m+fp/hard\libc-musl.a(__stderr.o)
 .ARM.attributes
                0x00001066       0x36 c:/program files/microchip/xc32/v4.21/bin/bin/../../lib/gcc/pic32c/8.3.1/../../../../pic32c/lib/thumb/v7e-m+fp/hard\libc-musl.a(__stdio_close.o)
 .ARM.attributes
                0x0000109c       0x36 c:/program files/microchip/xc32/v4.21/bin/bin/../../lib/gcc/pic32c/8.3.1/../../../../pic32c/lib/thumb/v7e-m+fp/hard\libc-musl.a(__stdio_write.o)
 .ARM.attributes
                0x000010d2       0x36 c:/program files/microchip/xc32/v4.21/bin/bin/../../lib/gcc/pic32c/8.3.1/../../../../pic32c/lib/thumb/v7e-m+fp/hard\libc-musl.a(__stdout.o)
 .ARM.attributes
                0x00001108       0x36 c:/program files/microchip/xc32/v4.21/bin/bin/../../lib/gcc/pic32c/8.3.1/../../../../pic32c/lib/thumb/v7e-m+fp/hard\libc-musl.a(__towrite.o)
 .ARM.attributes
                0x0000113e       0x36 c:/program files/microchip/xc32/v4.21/bin/bin/../../lib/gcc/pic32c/8.3.1/../../../../pic32c/lib/thumb/v7e-m+fp/hard\libc-musl.a(writev.o)
 .ARM.attributes
                0x00001174       0x36 c:/program files/microchip/xc32/v4.21/bin/bin/../../lib/gcc/pic32c/8.3.1/../../../../pic32c/lib/thumb/v7e-m+fp/hard\libc-musl.a(__overflow.o)
 .ARM.attributes
                0x000011aa       0x36 c:/program files/microchip/xc32/v4.21/bin/bin/../../lib/gcc/pic32c/8.3.1/../../../../pic32c/lib/thumb/v7e-m+fp/hard\libc-musl.a(__fwrite.o)
 .ARM.attributes
                0x000011e0       0x34 c:/program files/microchip/xc32/v4.21/bin/bin/../../lib/gcc/pic32c/8.3.1/../../../../pic32c/lib/thumb/v7e-m+fp/hard\libm-emfloat.a(fma.o)
 .ARM.attributes
                0x00001214       0x34 c:/program files/microchip/xc32/v4.21/bin/bin/../../lib/gcc/pic32c/8.3.1/../../../../pic32c/lib/thumb/v7e-m+fp/hard\libm-emfloat.a(floor.o)
 .ARM.attributes
                0x00001248       0x20 c:/program files/microchip/xc32/v4.21/bin/bin/../../lib/gcc/pic32c/8.3.1/../../../../pic32c/lib/thumb/v7e-m+fp/hard\libm-emfloat.a(__aeabi_dcmple.o)
 .ARM.attributes
                0x00001268       0x20 c:/program files/microchip/xc32/v4.21/bin/bin/../../lib/gcc/pic32c/8.3.1/../../../../pic32c/lib/thumb/v7e-m+fp/hard\libm-emfloat.a(__aeabi_dcmpeq.o)
 .ARM.attributes
                0x00001288       0x20 c:/program files/microchip/xc32/v4.21/bin/bin/../../lib/gcc/pic32c/8.3.1/../../../../pic32c/lib/thumb/v7e-m+fp/hard\libm-emfloat.a(__aeabi_dcmpgt.o)
 .ARM.attributes
                0x000012a8       0x20 c:/program files/microchip/xc32/v4.21/bin/bin/../../lib/gcc/pic32c/8.3.1/../../../../pic32c/lib/thumb/v7e-m+fp/hard\libm-emfloat.a(__aeabi_dcmplt.o)
 .ARM.attributes
                0x000012c8       0x20 c:/program files/microchip/xc32/v4.21/bin/bin/../../lib/gcc/pic32c/8.3.1/../../../../pic32c/lib/thumb/v7e-m+fp/hard\libm-emfloat.a(__aeabi_d2iz.o)
 .ARM.attributes
                0x000012e8       0x1e c:/program files/microchip/xc32/v4.21/bin/bin/../../lib/gcc/pic32c/8.3.1/thumb/v7e-m+fp/hard\libgcc.a(_aeabi_uldivmod.o)
 .ARM.attributes
                0x00001306       0x34 c:/program files/microchip/xc32/v4.21/bin/bin/../../lib/gcc/pic32c/8.3.1/thumb/v7e-m+fp/hard\libgcc.a(_udivmoddi4.o)
 .ARM.attributes
                0x0000133a       0x1e c:/program files/microchip/xc32/v4.21/bin/bin/../../lib/gcc/pic32c/8.3.1/thumb/v7e-m+fp/hard\libgcc.a(_dvmd_tls.o)
 .ARM.attributes
                0x00001358       0x34 c:/program files/microchip/xc32/v4.21/bin/bin/../../lib/gcc/pic32c/8.3.1/../../../../pic32c/lib/thumb/v7e-m+fp/hard\libpic32c.a(close.o)
 .ARM.attributes
                0x0000138c       0x34 c:/program files/microchip/xc32/v4.21/bin/bin/../../lib/gcc/pic32c/8.3.1/../../../../pic32c/lib/thumb/v7e-m+fp/hard\libpic32c.a(lseek.o)
 .ARM.attributes
                0x000013c0       0x34 c:/program files/microchip/xc32/v4.21/bin/bin/../../lib/gcc/pic32c/8.3.1/../../../../pic32c/lib/thumb/v7e-m+fp/hard\libpic32c.a(sbrk.o)
 .ARM.attributes
                0x000013f4       0x1e c:/program files/microchip/xc32/v4.21/bin/bin/../../lib/gcc/pic32c/8.3.1/thumb/v7e-m+fp/hard/crtn.o

.comment        0x00000000       0x2b
 .comment       0x00000000       0x2b c:/program files/microchip/xc32/v4.21/bin/bin/../../lib/gcc/pic32c/8.3.1/thumb/v7e-m+fp/hard/crtbegin.o
                                 0x2c (size before relaxing)
 .comment       0x0000002b       0x2c build/default/production/_ext/60163342/plib_adc1.o
 .comment       0x0000002b       0x2c build/default/production/_ext/60163342/plib_adc0.o
 .comment       0x0000002b       0x2c build/default/production/_ext/1984496892/plib_clock.o
 .comment       0x0000002b       0x2c build/default/production/_ext/60167341/plib_eic.o
 .comment       0x0000002b       0x2c build/default/production/_ext/1986646378/plib_evsys.o
 .comment       0x0000002b       0x2c build/default/production/_ext/1865468468/plib_nvic.o
 .comment       0x0000002b       0x2c build/default/production/_ext/1593096446/plib_nvmctrl.o
 .comment       0x0000002b       0x2c build/default/production/_ext/1865521619/plib_port.o
 .comment       0x0000002b       0x2c build/default/production/_ext/508257091/plib_sercom3_i2c_master.o
 .comment       0x0000002b       0x2c build/default/production/_ext/504274921/plib_sercom7_usart.o
 .comment       0x0000002b       0x2c build/default/production/_ext/504274921/plib_sercom6_usart.o
 .comment       0x0000002b       0x2c build/default/production/_ext/504274921/plib_sercom2_usart.o
 .comment       0x0000002b       0x2c build/default/production/_ext/504274921/plib_sercom5_usart.o
 .comment       0x0000002b       0x2c build/default/production/_ext/829342655/plib_tc0.o
 .comment       0x0000002b       0x2c build/default/production/_ext/829342655/plib_tc1.o
 .comment       0x0000002b       0x2c build/default/production/_ext/829342655/plib_tc5.o
 .comment       0x0000002b       0x2c build/default/production/_ext/60181570/plib_tcc4.o
 .comment       0x0000002b       0x2c build/default/production/_ext/163028504/xc32_monitor.o
 .comment       0x0000002b       0x2c build/default/production/_ext/1171490990/freertos_hooks.o
 .comment       0x0000002b       0x2c build/default/production/_ext/1171490990/startup_xc32.o
 .comment       0x0000002b       0x2c build/default/production/_ext/1171490990/interrupts.o
 .comment       0x0000002b       0x2c build/default/production/_ext/1171490990/exceptions.o
 .comment       0x0000002b       0x2c build/default/production/_ext/1171490990/initialization.o
 .comment       0x0000002b       0x2c build/default/production/_ext/246609638/port.o
 .comment       0x0000002b       0x2c build/default/production/_ext/1665200909/heap_4.o
 .comment       0x0000002b       0x2c build/default/production/_ext/404212886/list.o
 .comment       0x0000002b       0x2c build/default/production/_ext/404212886/queue.o
 .comment       0x0000002b       0x2c build/default/production/_ext/404212886/timers.o
 .comment       0x0000002b       0x2c build/default/production/_ext/404212886/FreeRTOS_tasks.o
 .comment       0x0000002b       0x2c build/default/production/_ext/1360937237/main.o
 .comment       0x0000002b       0x2c build/default/production/_ext/504274921/plib_sercom1_usart.o
 .comment       0x0000002b       0x2c c:/program files/microchip/xc32/v4.21/bin/bin/../../lib/gcc/pic32c/8.3.1/../../../../pic32c/lib/thumb/v7e-m+fp/hard\libpic32c.a(data_init_wrapper.o)
 .comment       0x0000002b       0x2c c:/program files/microchip/xc32/v4.21/bin/bin/../../lib/gcc/pic32c/8.3.1/../../../../pic32c/lib/thumb/v7e-m+fp/hard\libpic32c.a(data_init_0_1.o)
 .comment       0x0000002b       0x2c c:/program files/microchip/xc32/v4.21/bin/bin/../../lib/gcc/pic32c/8.3.1/../../../../pic32c/lib/thumb/v7e-m+fp/hard\libc-musl.a(__libc_start_main.o)
 .comment       0x0000002b       0x2c c:/program files/microchip/xc32/v4.21/bin/bin/../../lib/gcc/pic32c/8.3.1/../../../../pic32c/lib/thumb/v7e-m+fp/hard\libc-musl.a(libc.o)
 .comment       0x0000002b       0x2c c:/program files/microchip/xc32/v4.21/bin/bin/../../lib/gcc/pic32c/8.3.1/../../../../pic32c/lib/thumb/v7e-m+fp/hard\libc-musl.a(__sio_printf_dfoux.o)
 .comment       0x0000002b       0x2c c:/program files/microchip/xc32/v4.21/bin/bin/../../lib/gcc/pic32c/8.3.1/../../../../pic32c/lib/thumb/v7e-m+fp/hard\libc-musl.a(__fmt_d.o)
 .comment       0x0000002b       0x2c c:/program files/microchip/xc32/v4.21/bin/bin/../../lib/gcc/pic32c/8.3.1/../../../../pic32c/lib/thumb/v7e-m+fp/hard\libc-musl.a(__fmt_fp.o)
 .comment       0x0000002b       0x2c c:/program files/microchip/xc32/v4.21/bin/bin/../../lib/gcc/pic32c/8.3.1/../../../../pic32c/lib/thumb/v7e-m+fp/hard\libc-musl.a(__fmt_o.o)
 .comment       0x0000002b       0x2c c:/program files/microchip/xc32/v4.21/bin/bin/../../lib/gcc/pic32c/8.3.1/../../../../pic32c/lib/thumb/v7e-m+fp/hard\libc-musl.a(__fmt_s.o)
 .comment       0x0000002b       0x2c c:/program files/microchip/xc32/v4.21/bin/bin/../../lib/gcc/pic32c/8.3.1/../../../../pic32c/lib/thumb/v7e-m+fp/hard\libc-musl.a(__fmt_u.o)
 .comment       0x0000002b       0x2c c:/program files/microchip/xc32/v4.21/bin/bin/../../lib/gcc/pic32c/8.3.1/../../../../pic32c/lib/thumb/v7e-m+fp/hard\libc-musl.a(__fmt_x.o)
 .comment       0x0000002b       0x2c c:/program files/microchip/xc32/v4.21/bin/bin/../../lib/gcc/pic32c/8.3.1/../../../../pic32c/lib/thumb/v7e-m+fp/hard\libc-musl.a(__pop_float.o)
 .comment       0x0000002b       0x2c c:/program files/microchip/xc32/v4.21/bin/bin/../../lib/gcc/pic32c/8.3.1/../../../../pic32c/lib/thumb/v7e-m+fp/hard\libc-musl.a(__pop_int.o)
 .comment       0x0000002b       0x2c c:/program files/microchip/xc32/v4.21/bin/bin/../../lib/gcc/pic32c/8.3.1/../../../../pic32c/lib/thumb/v7e-m+fp/hard\libc-musl.a(__pop_ptr.o)
 .comment       0x0000002b       0x2c c:/program files/microchip/xc32/v4.21/bin/bin/../../lib/gcc/pic32c/8.3.1/../../../../pic32c/lib/thumb/v7e-m+fp/hard\libc-musl.a(__printf_core.o)
 .comment       0x0000002b       0x2c c:/program files/microchip/xc32/v4.21/bin/bin/../../lib/gcc/pic32c/8.3.1/../../../../pic32c/lib/thumb/v7e-m+fp/hard\libc-musl.a(stdin.o)
 .comment       0x0000002b       0x2c c:/program files/microchip/xc32/v4.21/bin/bin/../../lib/gcc/pic32c/8.3.1/../../../../pic32c/lib/thumb/v7e-m+fp/hard\libc-musl.a(stdout.o)
 .comment       0x0000002b       0x2c c:/program files/microchip/xc32/v4.21/bin/bin/../../lib/gcc/pic32c/8.3.1/../../../../pic32c/lib/thumb/v7e-m+fp/hard\libc-musl.a(puts.o)
 .comment       0x0000002b       0x2c c:/program files/microchip/xc32/v4.21/bin/bin/../../lib/gcc/pic32c/8.3.1/../../../../pic32c/lib/thumb/v7e-m+fp/hard\libc-musl.a(setbuf.o)
 .comment       0x0000002b       0x2c c:/program files/microchip/xc32/v4.21/bin/bin/../../lib/gcc/pic32c/8.3.1/../../../../pic32c/lib/thumb/v7e-m+fp/hard\libc-musl.a(atoi.o)
 .comment       0x0000002b       0x2c c:/program files/microchip/xc32/v4.21/bin/bin/../../lib/gcc/pic32c/8.3.1/../../../../pic32c/lib/thumb/v7e-m+fp/hard\libc-musl.a(memcpy.o)
 .comment       0x0000002b       0x2c c:/program files/microchip/xc32/v4.21/bin/bin/../../lib/gcc/pic32c/8.3.1/../../../../pic32c/lib/thumb/v7e-m+fp/hard\libc-musl.a(memset.o)
 .comment       0x0000002b       0x2c c:/program files/microchip/xc32/v4.21/bin/bin/../../lib/gcc/pic32c/8.3.1/../../../../pic32c/lib/thumb/v7e-m+fp/hard\libc-musl.a(strlen.o)
 .comment       0x0000002b       0x2c c:/program files/microchip/xc32/v4.21/bin/bin/../../lib/gcc/pic32c/8.3.1/../../../../pic32c/lib/thumb/v7e-m+fp/hard\libc-musl.a(strcpy.o)
 .comment       0x0000002b       0x2c c:/program files/microchip/xc32/v4.21/bin/bin/../../lib/gcc/pic32c/8.3.1/../../../../pic32c/lib/thumb/v7e-m+fp/hard\libc-musl.a(tolower.o)
 .comment       0x0000002b       0x2c c:/program files/microchip/xc32/v4.21/bin/bin/../../lib/gcc/pic32c/8.3.1/../../../../pic32c/lib/thumb/v7e-m+fp/hard\libc-musl.a(toupper.o)
 .comment       0x0000002b       0x2c c:/program files/microchip/xc32/v4.21/bin/bin/../../lib/gcc/pic32c/8.3.1/../../../../pic32c/lib/thumb/v7e-m+fp/hard\libc-musl.a(__environ.o)
 .comment       0x0000002b       0x2c c:/program files/microchip/xc32/v4.21/bin/bin/../../lib/gcc/pic32c/8.3.1/../../../../pic32c/lib/thumb/v7e-m+fp/hard\libc-musl.a(__errno_location.o)
 .comment       0x0000002b       0x2c c:/program files/microchip/xc32/v4.21/bin/bin/../../lib/gcc/pic32c/8.3.1/../../../../pic32c/lib/thumb/v7e-m+fp/hard\libc-musl.a(__int_vfprintf.o)
 .comment       0x0000002b       0x2c c:/program files/microchip/xc32/v4.21/bin/bin/../../lib/gcc/pic32c/8.3.1/../../../../pic32c/lib/thumb/v7e-m+fp/hard\libc-musl.a(fputs.o)
 .comment       0x0000002b       0x2c c:/program files/microchip/xc32/v4.21/bin/bin/../../lib/gcc/pic32c/8.3.1/../../../../pic32c/lib/thumb/v7e-m+fp/hard\libc-musl.a(__stdio_read.o)
 .comment       0x0000002b       0x2c c:/program files/microchip/xc32/v4.21/bin/bin/../../lib/gcc/pic32c/8.3.1/../../../../pic32c/lib/thumb/v7e-m+fp/hard\libc-musl.a(__towrite_rw.o)
 .comment       0x0000002b       0x2c c:/program files/microchip/xc32/v4.21/bin/bin/../../lib/gcc/pic32c/8.3.1/../../../../pic32c/lib/thumb/v7e-m+fp/hard\libc-musl.a(fwrite.o)
 .comment       0x0000002b       0x2c c:/program files/microchip/xc32/v4.21/bin/bin/../../lib/gcc/pic32c/8.3.1/../../../../pic32c/lib/thumb/v7e-m+fp/hard\libc-musl.a(putc.o)
 .comment       0x0000002b       0x2c c:/program files/microchip/xc32/v4.21/bin/bin/../../lib/gcc/pic32c/8.3.1/../../../../pic32c/lib/thumb/v7e-m+fp/hard\libc-musl.a(setvbuf.o)
 .comment       0x0000002b       0x2c c:/program files/microchip/xc32/v4.21/bin/bin/../../lib/gcc/pic32c/8.3.1/../../../../pic32c/lib/thumb/v7e-m+fp/hard\libc-musl.a(stpcpy.o)
 .comment       0x0000002b       0x2c c:/program files/microchip/xc32/v4.21/bin/bin/../../lib/gcc/pic32c/8.3.1/../../../../pic32c/lib/thumb/v7e-m+fp/hard\libc-musl.a(readv.o)
 .comment       0x0000002b       0x2c c:/program files/microchip/xc32/v4.21/bin/bin/../../lib/gcc/pic32c/8.3.1/../../../../pic32c/lib/thumb/v7e-m+fp/hard\libc-musl.a(malloc.o)
 .comment       0x0000002b       0x2c c:/program files/microchip/xc32/v4.21/bin/bin/../../lib/gcc/pic32c/8.3.1/../../../../pic32c/lib/thumb/v7e-m+fp/hard\libc-musl.a(expand_heap.o)
 .comment       0x0000002b       0x2c c:/program files/microchip/xc32/v4.21/bin/bin/../../lib/gcc/pic32c/8.3.1/../../../../pic32c/lib/thumb/v7e-m+fp/hard\libc-musl.a(__init_stdio.o)
 .comment       0x0000002b       0x2c c:/program files/microchip/xc32/v4.21/bin/bin/../../lib/gcc/pic32c/8.3.1/../../../../pic32c/lib/thumb/v7e-m+fp/hard\libc-musl.a(__out.o)
 .comment       0x0000002b       0x2c c:/program files/microchip/xc32/v4.21/bin/bin/../../lib/gcc/pic32c/8.3.1/../../../../pic32c/lib/thumb/v7e-m+fp/hard\libc-musl.a(__putc.o)
 .comment       0x0000002b       0x2c c:/program files/microchip/xc32/v4.21/bin/bin/../../lib/gcc/pic32c/8.3.1/../../../../pic32c/lib/thumb/v7e-m+fp/hard\libc-musl.a(__stderr.o)
 .comment       0x0000002b       0x2c c:/program files/microchip/xc32/v4.21/bin/bin/../../lib/gcc/pic32c/8.3.1/../../../../pic32c/lib/thumb/v7e-m+fp/hard\libc-musl.a(__stdio_close.o)
 .comment       0x0000002b       0x2c c:/program files/microchip/xc32/v4.21/bin/bin/../../lib/gcc/pic32c/8.3.1/../../../../pic32c/lib/thumb/v7e-m+fp/hard\libc-musl.a(__stdio_write.o)
 .comment       0x0000002b       0x2c c:/program files/microchip/xc32/v4.21/bin/bin/../../lib/gcc/pic32c/8.3.1/../../../../pic32c/lib/thumb/v7e-m+fp/hard\libc-musl.a(__stdout.o)
 .comment       0x0000002b       0x2c c:/program files/microchip/xc32/v4.21/bin/bin/../../lib/gcc/pic32c/8.3.1/../../../../pic32c/lib/thumb/v7e-m+fp/hard\libc-musl.a(__towrite.o)
 .comment       0x0000002b       0x2c c:/program files/microchip/xc32/v4.21/bin/bin/../../lib/gcc/pic32c/8.3.1/../../../../pic32c/lib/thumb/v7e-m+fp/hard\libc-musl.a(writev.o)
 .comment       0x0000002b       0x2c c:/program files/microchip/xc32/v4.21/bin/bin/../../lib/gcc/pic32c/8.3.1/../../../../pic32c/lib/thumb/v7e-m+fp/hard\libc-musl.a(__overflow.o)
 .comment       0x0000002b       0x2c c:/program files/microchip/xc32/v4.21/bin/bin/../../lib/gcc/pic32c/8.3.1/../../../../pic32c/lib/thumb/v7e-m+fp/hard\libc-musl.a(__fwrite.o)
 .comment       0x0000002b       0x2c c:/program files/microchip/xc32/v4.21/bin/bin/../../lib/gcc/pic32c/8.3.1/../../../../pic32c/lib/thumb/v7e-m+fp/hard\libm-emfloat.a(fma.o)
 .comment       0x0000002b       0x2c c:/program files/microchip/xc32/v4.21/bin/bin/../../lib/gcc/pic32c/8.3.1/../../../../pic32c/lib/thumb/v7e-m+fp/hard\libm-emfloat.a(floor.o)
 .comment       0x0000002b       0x2c c:/program files/microchip/xc32/v4.21/bin/bin/../../lib/gcc/pic32c/8.3.1/thumb/v7e-m+fp/hard\libgcc.a(_udivmoddi4.o)
 .comment       0x0000002b       0x2c c:/program files/microchip/xc32/v4.21/bin/bin/../../lib/gcc/pic32c/8.3.1/../../../../pic32c/lib/thumb/v7e-m+fp/hard\libpic32c.a(close.o)
 .comment       0x0000002b       0x2c c:/program files/microchip/xc32/v4.21/bin/bin/../../lib/gcc/pic32c/8.3.1/../../../../pic32c/lib/thumb/v7e-m+fp/hard\libpic32c.a(lseek.o)
 .comment       0x0000002b       0x2c c:/program files/microchip/xc32/v4.21/bin/bin/../../lib/gcc/pic32c/8.3.1/../../../../pic32c/lib/thumb/v7e-m+fp/hard\libpic32c.a(sbrk.o)

.debug_info     0x00000000    0x33699
 .debug_info    0x00000000      0xd23 build/default/production/_ext/60163342/plib_adc1.o
 .debug_info    0x00000d23      0xd23 build/default/production/_ext/60163342/plib_adc0.o
 .debug_info    0x00001a46      0xb61 build/default/production/_ext/1984496892/plib_clock.o
 .debug_info    0x000025a7      0x9b4 build/default/production/_ext/60167341/plib_eic.o
 .debug_info    0x00002f5b      0x31d build/default/production/_ext/1986646378/plib_evsys.o
 .debug_info    0x00003278     0x1e44 build/default/production/_ext/1865468468/plib_nvic.o
 .debug_info    0x000050bc      0xe5c build/default/production/_ext/1593096446/plib_nvmctrl.o
 .debug_info    0x00005f18      0xfa8 build/default/production/_ext/1865521619/plib_port.o
 .debug_info    0x00006ec0     0x1907 build/default/production/_ext/508257091/plib_sercom3_i2c_master.o
 .debug_info    0x000087c7     0x197d build/default/production/_ext/504274921/plib_sercom7_usart.o
 .debug_info    0x0000a144     0x197d build/default/production/_ext/504274921/plib_sercom6_usart.o
 .debug_info    0x0000bac1     0x197d build/default/production/_ext/504274921/plib_sercom2_usart.o
 .debug_info    0x0000d43e     0x158f build/default/production/_ext/504274921/plib_sercom5_usart.o
 .debug_info    0x0000e9cd      0xbd9 build/default/production/_ext/829342655/plib_tc0.o
 .debug_info    0x0000f5a6      0xbd9 build/default/production/_ext/829342655/plib_tc1.o
 .debug_info    0x0001017f      0xbd9 build/default/production/_ext/829342655/plib_tc5.o
 .debug_info    0x00010d58      0x8b6 build/default/production/_ext/60181570/plib_tcc4.o
 .debug_info    0x0001160e      0x45c build/default/production/_ext/163028504/xc32_monitor.o
 .debug_info    0x00011a6a      0x52e build/default/production/_ext/1171490990/freertos_hooks.o
 .debug_info    0x00011f98      0x898 build/default/production/_ext/1171490990/startup_xc32.o
 .debug_info    0x00012830     0x16d1 build/default/production/_ext/1171490990/interrupts.o
 .debug_info    0x00013f01      0x3df build/default/production/_ext/1171490990/exceptions.o
 .debug_info    0x000142e0      0x58a build/default/production/_ext/1171490990/initialization.o
 .debug_info    0x0001486a      0x78a build/default/production/_ext/246609638/port.o
 .debug_info    0x00014ff4      0xae5 build/default/production/_ext/1665200909/heap_4.o
 .debug_info    0x00015ad9      0x637 build/default/production/_ext/404212886/list.o
 .debug_info    0x00016110     0x22dc build/default/production/_ext/404212886/queue.o
 .debug_info    0x000183ec     0x17b7 build/default/production/_ext/404212886/timers.o
 .debug_info    0x00019ba3     0x32ab build/default/production/_ext/404212886/FreeRTOS_tasks.o
 .debug_info    0x0001ce4e     0x3db3 build/default/production/_ext/1360937237/main.o
 .debug_info    0x00020c01     0x197d build/default/production/_ext/504274921/plib_sercom1_usart.o
 .debug_info    0x0002257e      0x2a0 c:/program files/microchip/xc32/v4.21/bin/bin/../../lib/gcc/pic32c/8.3.1/../../../../pic32c/lib/thumb/v7e-m+fp/hard\libpic32c.a(data_init_wrapper.o)
 .debug_info    0x0002281e      0x2a3 c:/program files/microchip/xc32/v4.21/bin/bin/../../lib/gcc/pic32c/8.3.1/../../../../pic32c/lib/thumb/v7e-m+fp/hard\libpic32c.a(data_init_0_1.o)
 .debug_info    0x00022ac1      0x621 c:/program files/microchip/xc32/v4.21/bin/bin/../../lib/gcc/pic32c/8.3.1/../../../../pic32c/lib/thumb/v7e-m+fp/hard\libc-musl.a(__libc_start_main.o)
 .debug_info    0x000230e2      0x533 c:/program files/microchip/xc32/v4.21/bin/bin/../../lib/gcc/pic32c/8.3.1/../../../../pic32c/lib/thumb/v7e-m+fp/hard\libc-musl.a(libc.o)
 .debug_info    0x00023615      0x4c8 c:/program files/microchip/xc32/v4.21/bin/bin/../../lib/gcc/pic32c/8.3.1/../../../../pic32c/lib/thumb/v7e-m+fp/hard\libc-musl.a(__sio_printf_dfoux.o)
 .debug_info    0x00023add      0x5c0 c:/program files/microchip/xc32/v4.21/bin/bin/../../lib/gcc/pic32c/8.3.1/../../../../pic32c/lib/thumb/v7e-m+fp/hard\libc-musl.a(__fmt_d.o)
 .debug_info    0x0002409d      0x949 c:/program files/microchip/xc32/v4.21/bin/bin/../../lib/gcc/pic32c/8.3.1/../../../../pic32c/lib/thumb/v7e-m+fp/hard\libc-musl.a(__fmt_fp.o)
 .debug_info    0x000249e6      0x591 c:/program files/microchip/xc32/v4.21/bin/bin/../../lib/gcc/pic32c/8.3.1/../../../../pic32c/lib/thumb/v7e-m+fp/hard\libc-musl.a(__fmt_o.o)
 .debug_info    0x00024f77      0x535 c:/program files/microchip/xc32/v4.21/bin/bin/../../lib/gcc/pic32c/8.3.1/../../../../pic32c/lib/thumb/v7e-m+fp/hard\libc-musl.a(__fmt_s.o)
 .debug_info    0x000254ac      0x65e c:/program files/microchip/xc32/v4.21/bin/bin/../../lib/gcc/pic32c/8.3.1/../../../../pic32c/lib/thumb/v7e-m+fp/hard\libc-musl.a(__fmt_u.o)
 .debug_info    0x00025b0a      0x5ff c:/program files/microchip/xc32/v4.21/bin/bin/../../lib/gcc/pic32c/8.3.1/../../../../pic32c/lib/thumb/v7e-m+fp/hard\libc-musl.a(__fmt_x.o)
 .debug_info    0x00026109      0x3db c:/program files/microchip/xc32/v4.21/bin/bin/../../lib/gcc/pic32c/8.3.1/../../../../pic32c/lib/thumb/v7e-m+fp/hard\libc-musl.a(__pop_float.o)
 .debug_info    0x000264e4      0x3ff c:/program files/microchip/xc32/v4.21/bin/bin/../../lib/gcc/pic32c/8.3.1/../../../../pic32c/lib/thumb/v7e-m+fp/hard\libc-musl.a(__pop_int.o)
 .debug_info    0x000268e3      0x405 c:/program files/microchip/xc32/v4.21/bin/bin/../../lib/gcc/pic32c/8.3.1/../../../../pic32c/lib/thumb/v7e-m+fp/hard\libc-musl.a(__pop_ptr.o)
 .debug_info    0x00026ce8      0xd31 c:/program files/microchip/xc32/v4.21/bin/bin/../../lib/gcc/pic32c/8.3.1/../../../../pic32c/lib/thumb/v7e-m+fp/hard\libc-musl.a(__printf_core.o)
 .debug_info    0x00027a19      0x6be c:/program files/microchip/xc32/v4.21/bin/bin/../../lib/gcc/pic32c/8.3.1/../../../../pic32c/lib/thumb/v7e-m+fp/hard\libc-musl.a(stdin.o)
 .debug_info    0x000280d7      0x481 c:/program files/microchip/xc32/v4.21/bin/bin/../../lib/gcc/pic32c/8.3.1/../../../../pic32c/lib/thumb/v7e-m+fp/hard\libc-musl.a(stdout.o)
 .debug_info    0x00028558      0x645 c:/program files/microchip/xc32/v4.21/bin/bin/../../lib/gcc/pic32c/8.3.1/../../../../pic32c/lib/thumb/v7e-m+fp/hard\libc-musl.a(puts.o)
 .debug_info    0x00028b9d      0x2e1 c:/program files/microchip/xc32/v4.21/bin/bin/../../lib/gcc/pic32c/8.3.1/../../../../pic32c/lib/thumb/v7e-m+fp/hard\libc-musl.a(setbuf.o)
 .debug_info    0x00028e7e      0x2f9 c:/program files/microchip/xc32/v4.21/bin/bin/../../lib/gcc/pic32c/8.3.1/../../../../pic32c/lib/thumb/v7e-m+fp/hard\libc-musl.a(atoi.o)
 .debug_info    0x00029177      0x2ef c:/program files/microchip/xc32/v4.21/bin/bin/../../lib/gcc/pic32c/8.3.1/../../../../pic32c/lib/thumb/v7e-m+fp/hard\libc-musl.a(memcpy.o)
 .debug_info    0x00029466      0x2b3 c:/program files/microchip/xc32/v4.21/bin/bin/../../lib/gcc/pic32c/8.3.1/../../../../pic32c/lib/thumb/v7e-m+fp/hard\libc-musl.a(memset.o)
 .debug_info    0x00029719      0x2a4 c:/program files/microchip/xc32/v4.21/bin/bin/../../lib/gcc/pic32c/8.3.1/../../../../pic32c/lib/thumb/v7e-m+fp/hard\libc-musl.a(strlen.o)
 .debug_info    0x000299bd      0x2b2 c:/program files/microchip/xc32/v4.21/bin/bin/../../lib/gcc/pic32c/8.3.1/../../../../pic32c/lib/thumb/v7e-m+fp/hard\libc-musl.a(strcpy.o)
 .debug_info    0x00029c6f      0x351 c:/program files/microchip/xc32/v4.21/bin/bin/../../lib/gcc/pic32c/8.3.1/../../../../pic32c/lib/thumb/v7e-m+fp/hard\libc-musl.a(tolower.o)
 .debug_info    0x00029fc0      0x351 c:/program files/microchip/xc32/v4.21/bin/bin/../../lib/gcc/pic32c/8.3.1/../../../../pic32c/lib/thumb/v7e-m+fp/hard\libc-musl.a(toupper.o)
 .debug_info    0x0002a311      0x2ad c:/program files/microchip/xc32/v4.21/bin/bin/../../lib/gcc/pic32c/8.3.1/../../../../pic32c/lib/thumb/v7e-m+fp/hard\libc-musl.a(__environ.o)
 .debug_info    0x0002a5be      0x271 c:/program files/microchip/xc32/v4.21/bin/bin/../../lib/gcc/pic32c/8.3.1/../../../../pic32c/lib/thumb/v7e-m+fp/hard\libc-musl.a(__errno_location.o)
 .debug_info    0x0002a82f      0x477 c:/program files/microchip/xc32/v4.21/bin/bin/../../lib/gcc/pic32c/8.3.1/../../../../pic32c/lib/thumb/v7e-m+fp/hard\libc-musl.a(__int_vfprintf.o)
 .debug_info    0x0002aca6      0x655 c:/program files/microchip/xc32/v4.21/bin/bin/../../lib/gcc/pic32c/8.3.1/../../../../pic32c/lib/thumb/v7e-m+fp/hard\libc-musl.a(fputs.o)
 .debug_info    0x0002b2fb      0x6a8 c:/program files/microchip/xc32/v4.21/bin/bin/../../lib/gcc/pic32c/8.3.1/../../../../pic32c/lib/thumb/v7e-m+fp/hard\libc-musl.a(__stdio_read.o)
 .debug_info    0x0002b9a3      0x5d7 c:/program files/microchip/xc32/v4.21/bin/bin/../../lib/gcc/pic32c/8.3.1/../../../../pic32c/lib/thumb/v7e-m+fp/hard\libc-musl.a(__towrite_rw.o)
 .debug_info    0x0002bf7a      0x4d1 c:/program files/microchip/xc32/v4.21/bin/bin/../../lib/gcc/pic32c/8.3.1/../../../../pic32c/lib/thumb/v7e-m+fp/hard\libc-musl.a(fwrite.o)
 .debug_info    0x0002c44b      0x4a5 c:/program files/microchip/xc32/v4.21/bin/bin/../../lib/gcc/pic32c/8.3.1/../../../../pic32c/lib/thumb/v7e-m+fp/hard\libc-musl.a(putc.o)
 .debug_info    0x0002c8f0      0x54b c:/program files/microchip/xc32/v4.21/bin/bin/../../lib/gcc/pic32c/8.3.1/../../../../pic32c/lib/thumb/v7e-m+fp/hard\libc-musl.a(setvbuf.o)
 .debug_info    0x0002ce3b      0x2b6 c:/program files/microchip/xc32/v4.21/bin/bin/../../lib/gcc/pic32c/8.3.1/../../../../pic32c/lib/thumb/v7e-m+fp/hard\libc-musl.a(stpcpy.o)
 .debug_info    0x0002d0f1      0x364 c:/program files/microchip/xc32/v4.21/bin/bin/../../lib/gcc/pic32c/8.3.1/../../../../pic32c/lib/thumb/v7e-m+fp/hard\libc-musl.a(readv.o)
 .debug_info    0x0002d455     0x13a3 c:/program files/microchip/xc32/v4.21/bin/bin/../../lib/gcc/pic32c/8.3.1/../../../../pic32c/lib/thumb/v7e-m+fp/hard\libc-musl.a(malloc.o)
 .debug_info    0x0002e7f8      0x37a c:/program files/microchip/xc32/v4.21/bin/bin/../../lib/gcc/pic32c/8.3.1/../../../../pic32c/lib/thumb/v7e-m+fp/hard\libc-musl.a(expand_heap.o)
 .debug_info    0x0002eb72      0x32a c:/program files/microchip/xc32/v4.21/bin/bin/../../lib/gcc/pic32c/8.3.1/../../../../pic32c/lib/thumb/v7e-m+fp/hard\libc-musl.a(__init_stdio.o)
 .debug_info    0x0002ee9c      0x536 c:/program files/microchip/xc32/v4.21/bin/bin/../../lib/gcc/pic32c/8.3.1/../../../../pic32c/lib/thumb/v7e-m+fp/hard\libc-musl.a(__out.o)
 .debug_info    0x0002f3d2      0x503 c:/program files/microchip/xc32/v4.21/bin/bin/../../lib/gcc/pic32c/8.3.1/../../../../pic32c/lib/thumb/v7e-m+fp/hard\libc-musl.a(__putc.o)
 .debug_info    0x0002f8d5      0x662 c:/program files/microchip/xc32/v4.21/bin/bin/../../lib/gcc/pic32c/8.3.1/../../../../pic32c/lib/thumb/v7e-m+fp/hard\libc-musl.a(__stderr.o)
 .debug_info    0x0002ff37      0x6c2 c:/program files/microchip/xc32/v4.21/bin/bin/../../lib/gcc/pic32c/8.3.1/../../../../pic32c/lib/thumb/v7e-m+fp/hard\libc-musl.a(__stdio_close.o)
 .debug_info    0x000305f9      0x6f5 c:/program files/microchip/xc32/v4.21/bin/bin/../../lib/gcc/pic32c/8.3.1/../../../../pic32c/lib/thumb/v7e-m+fp/hard\libc-musl.a(__stdio_write.o)
 .debug_info    0x00030cee      0x662 c:/program files/microchip/xc32/v4.21/bin/bin/../../lib/gcc/pic32c/8.3.1/../../../../pic32c/lib/thumb/v7e-m+fp/hard\libc-musl.a(__stdout.o)
 .debug_info    0x00031350      0x4f3 c:/program files/microchip/xc32/v4.21/bin/bin/../../lib/gcc/pic32c/8.3.1/../../../../pic32c/lib/thumb/v7e-m+fp/hard\libc-musl.a(__towrite.o)
 .debug_info    0x00031843      0x368 c:/program files/microchip/xc32/v4.21/bin/bin/../../lib/gcc/pic32c/8.3.1/../../../../pic32c/lib/thumb/v7e-m+fp/hard\libc-musl.a(writev.o)
 .debug_info    0x00031bab      0x625 c:/program files/microchip/xc32/v4.21/bin/bin/../../lib/gcc/pic32c/8.3.1/../../../../pic32c/lib/thumb/v7e-m+fp/hard\libc-musl.a(__overflow.o)
 .debug_info    0x000321d0      0x544 c:/program files/microchip/xc32/v4.21/bin/bin/../../lib/gcc/pic32c/8.3.1/../../../../pic32c/lib/thumb/v7e-m+fp/hard\libc-musl.a(__fwrite.o)
 .debug_info    0x00032714       0x26 c:/program files/microchip/xc32/v4.21/bin/bin/../../lib/gcc/pic32c/8.3.1/thumb/v7e-m+fp/hard\libgcc.a(_aeabi_uldivmod.o)
 .debug_info    0x0003273a      0x7c0 c:/program files/microchip/xc32/v4.21/bin/bin/../../lib/gcc/pic32c/8.3.1/thumb/v7e-m+fp/hard\libgcc.a(_udivmoddi4.o)
 .debug_info    0x00032efa       0x26 c:/program files/microchip/xc32/v4.21/bin/bin/../../lib/gcc/pic32c/8.3.1/thumb/v7e-m+fp/hard\libgcc.a(_dvmd_tls.o)
 .debug_info    0x00032f20      0x27e c:/program files/microchip/xc32/v4.21/bin/bin/../../lib/gcc/pic32c/8.3.1/../../../../pic32c/lib/thumb/v7e-m+fp/hard\libpic32c.a(close.o)
 .debug_info    0x0003319e      0x27e c:/program files/microchip/xc32/v4.21/bin/bin/../../lib/gcc/pic32c/8.3.1/../../../../pic32c/lib/thumb/v7e-m+fp/hard\libpic32c.a(lseek.o)
 .debug_info    0x0003341c      0x27d c:/program files/microchip/xc32/v4.21/bin/bin/../../lib/gcc/pic32c/8.3.1/../../../../pic32c/lib/thumb/v7e-m+fp/hard\libpic32c.a(sbrk.o)

.debug_abbrev   0x00000000     0x7620
 .debug_abbrev  0x00000000      0x17e build/default/production/_ext/60163342/plib_adc1.o
 .debug_abbrev  0x0000017e      0x17e build/default/production/_ext/60163342/plib_adc0.o
 .debug_abbrev  0x000002fc      0x122 build/default/production/_ext/1984496892/plib_clock.o
 .debug_abbrev  0x0000041e      0x19e build/default/production/_ext/60167341/plib_eic.o
 .debug_abbrev  0x000005bc       0x3b build/default/production/_ext/1986646378/plib_evsys.o
 .debug_abbrev  0x000005f7      0x20f build/default/production/_ext/1865468468/plib_nvic.o
 .debug_abbrev  0x00000806      0x245 build/default/production/_ext/1593096446/plib_nvmctrl.o
 .debug_abbrev  0x00000a4b      0x1d6 build/default/production/_ext/1865521619/plib_port.o
 .debug_abbrev  0x00000c21      0x416 build/default/production/_ext/508257091/plib_sercom3_i2c_master.o
 .debug_abbrev  0x00001037      0x357 build/default/production/_ext/504274921/plib_sercom7_usart.o
 .debug_abbrev  0x0000138e      0x357 build/default/production/_ext/504274921/plib_sercom6_usart.o
 .debug_abbrev  0x000016e5      0x357 build/default/production/_ext/504274921/plib_sercom2_usart.o
 .debug_abbrev  0x00001a3c      0x2a1 build/default/production/_ext/504274921/plib_sercom5_usart.o
 .debug_abbrev  0x00001cdd      0x187 build/default/production/_ext/829342655/plib_tc0.o
 .debug_abbrev  0x00001e64      0x187 build/default/production/_ext/829342655/plib_tc1.o
 .debug_abbrev  0x00001feb      0x187 build/default/production/_ext/829342655/plib_tc5.o
 .debug_abbrev  0x00002172      0x128 build/default/production/_ext/60181570/plib_tcc4.o
 .debug_abbrev  0x0000229a       0xb9 build/default/production/_ext/163028504/xc32_monitor.o
 .debug_abbrev  0x00002353      0x14e build/default/production/_ext/1171490990/freertos_hooks.o
 .debug_abbrev  0x000024a1      0x1db build/default/production/_ext/1171490990/startup_xc32.o
 .debug_abbrev  0x0000267c       0xb5 build/default/production/_ext/1171490990/interrupts.o
 .debug_abbrev  0x00002731       0x3e build/default/production/_ext/1171490990/exceptions.o
 .debug_abbrev  0x0000276f      0x127 build/default/production/_ext/1171490990/initialization.o
 .debug_abbrev  0x00002896      0x226 build/default/production/_ext/246609638/port.o
 .debug_abbrev  0x00002abc      0x27e build/default/production/_ext/1665200909/heap_4.o
 .debug_abbrev  0x00002d3a      0x15e build/default/production/_ext/404212886/list.o
 .debug_abbrev  0x00002e98      0x367 build/default/production/_ext/404212886/queue.o
 .debug_abbrev  0x000031ff      0x389 build/default/production/_ext/404212886/timers.o
 .debug_abbrev  0x00003588      0x480 build/default/production/_ext/404212886/FreeRTOS_tasks.o
 .debug_abbrev  0x00003a08      0x34a build/default/production/_ext/1360937237/main.o
 .debug_abbrev  0x00003d52      0x357 build/default/production/_ext/504274921/plib_sercom1_usart.o
 .debug_abbrev  0x000040a9       0x2b c:/program files/microchip/xc32/v4.21/bin/bin/../../lib/gcc/pic32c/8.3.1/../../../../pic32c/lib/thumb/v7e-m+fp/hard\libpic32c.a(data_init_wrapper.o)
 .debug_abbrev  0x000040d4       0x2e c:/program files/microchip/xc32/v4.21/bin/bin/../../lib/gcc/pic32c/8.3.1/../../../../pic32c/lib/thumb/v7e-m+fp/hard\libpic32c.a(data_init_0_1.o)
 .debug_abbrev  0x00004102      0x117 c:/program files/microchip/xc32/v4.21/bin/bin/../../lib/gcc/pic32c/8.3.1/../../../../pic32c/lib/thumb/v7e-m+fp/hard\libc-musl.a(__libc_start_main.o)
 .debug_abbrev  0x00004219       0xb8 c:/program files/microchip/xc32/v4.21/bin/bin/../../lib/gcc/pic32c/8.3.1/../../../../pic32c/lib/thumb/v7e-m+fp/hard\libc-musl.a(libc.o)
 .debug_abbrev  0x000042d1      0x145 c:/program files/microchip/xc32/v4.21/bin/bin/../../lib/gcc/pic32c/8.3.1/../../../../pic32c/lib/thumb/v7e-m+fp/hard\libc-musl.a(__sio_printf_dfoux.o)
 .debug_abbrev  0x00004416      0x120 c:/program files/microchip/xc32/v4.21/bin/bin/../../lib/gcc/pic32c/8.3.1/../../../../pic32c/lib/thumb/v7e-m+fp/hard\libc-musl.a(__fmt_d.o)
 .debug_abbrev  0x00004536      0x1b3 c:/program files/microchip/xc32/v4.21/bin/bin/../../lib/gcc/pic32c/8.3.1/../../../../pic32c/lib/thumb/v7e-m+fp/hard\libc-musl.a(__fmt_fp.o)
 .debug_abbrev  0x000046e9      0x120 c:/program files/microchip/xc32/v4.21/bin/bin/../../lib/gcc/pic32c/8.3.1/../../../../pic32c/lib/thumb/v7e-m+fp/hard\libc-musl.a(__fmt_o.o)
 .debug_abbrev  0x00004809      0x10b c:/program files/microchip/xc32/v4.21/bin/bin/../../lib/gcc/pic32c/8.3.1/../../../../pic32c/lib/thumb/v7e-m+fp/hard\libc-musl.a(__fmt_s.o)
 .debug_abbrev  0x00004914      0x163 c:/program files/microchip/xc32/v4.21/bin/bin/../../lib/gcc/pic32c/8.3.1/../../../../pic32c/lib/thumb/v7e-m+fp/hard\libc-musl.a(__fmt_u.o)
 .debug_abbrev  0x00004a77      0x10f c:/program files/microchip/xc32/v4.21/bin/bin/../../lib/gcc/pic32c/8.3.1/../../../../pic32c/lib/thumb/v7e-m+fp/hard\libc-musl.a(__fmt_x.o)
 .debug_abbrev  0x00004b86       0xbd c:/program files/microchip/xc32/v4.21/bin/bin/../../lib/gcc/pic32c/8.3.1/../../../../pic32c/lib/thumb/v7e-m+fp/hard\libc-musl.a(__pop_float.o)
 .debug_abbrev  0x00004c43       0xbd c:/program files/microchip/xc32/v4.21/bin/bin/../../lib/gcc/pic32c/8.3.1/../../../../pic32c/lib/thumb/v7e-m+fp/hard\libc-musl.a(__pop_int.o)
 .debug_abbrev  0x00004d00       0xce c:/program files/microchip/xc32/v4.21/bin/bin/../../lib/gcc/pic32c/8.3.1/../../../../pic32c/lib/thumb/v7e-m+fp/hard\libc-musl.a(__pop_ptr.o)
 .debug_abbrev  0x00004dce      0x2c5 c:/program files/microchip/xc32/v4.21/bin/bin/../../lib/gcc/pic32c/8.3.1/../../../../pic32c/lib/thumb/v7e-m+fp/hard\libc-musl.a(__printf_core.o)
 .debug_abbrev  0x00005093      0x178 c:/program files/microchip/xc32/v4.21/bin/bin/../../lib/gcc/pic32c/8.3.1/../../../../pic32c/lib/thumb/v7e-m+fp/hard\libc-musl.a(stdin.o)
 .debug_abbrev  0x0000520b      0x135 c:/program files/microchip/xc32/v4.21/bin/bin/../../lib/gcc/pic32c/8.3.1/../../../../pic32c/lib/thumb/v7e-m+fp/hard\libc-musl.a(stdout.o)
 .debug_abbrev  0x00005340      0x151 c:/program files/microchip/xc32/v4.21/bin/bin/../../lib/gcc/pic32c/8.3.1/../../../../pic32c/lib/thumb/v7e-m+fp/hard\libc-musl.a(puts.o)
 .debug_abbrev  0x00005491       0xa0 c:/program files/microchip/xc32/v4.21/bin/bin/../../lib/gcc/pic32c/8.3.1/../../../../pic32c/lib/thumb/v7e-m+fp/hard\libc-musl.a(setbuf.o)
 .debug_abbrev  0x00005531       0xbb c:/program files/microchip/xc32/v4.21/bin/bin/../../lib/gcc/pic32c/8.3.1/../../../../pic32c/lib/thumb/v7e-m+fp/hard\libc-musl.a(atoi.o)
 .debug_abbrev  0x000055ec       0x9c c:/program files/microchip/xc32/v4.21/bin/bin/../../lib/gcc/pic32c/8.3.1/../../../../pic32c/lib/thumb/v7e-m+fp/hard\libc-musl.a(memcpy.o)
 .debug_abbrev  0x00005688       0x97 c:/program files/microchip/xc32/v4.21/bin/bin/../../lib/gcc/pic32c/8.3.1/../../../../pic32c/lib/thumb/v7e-m+fp/hard\libc-musl.a(memset.o)
 .debug_abbrev  0x0000571f       0x86 c:/program files/microchip/xc32/v4.21/bin/bin/../../lib/gcc/pic32c/8.3.1/../../../../pic32c/lib/thumb/v7e-m+fp/hard\libc-musl.a(strlen.o)
 .debug_abbrev  0x000057a5       0x8e c:/program files/microchip/xc32/v4.21/bin/bin/../../lib/gcc/pic32c/8.3.1/../../../../pic32c/lib/thumb/v7e-m+fp/hard\libc-musl.a(strcpy.o)
 .debug_abbrev  0x00005833       0xfd c:/program files/microchip/xc32/v4.21/bin/bin/../../lib/gcc/pic32c/8.3.1/../../../../pic32c/lib/thumb/v7e-m+fp/hard\libc-musl.a(tolower.o)
 .debug_abbrev  0x00005930       0xfd c:/program files/microchip/xc32/v4.21/bin/bin/../../lib/gcc/pic32c/8.3.1/../../../../pic32c/lib/thumb/v7e-m+fp/hard\libc-musl.a(toupper.o)
 .debug_abbrev  0x00005a2d       0x57 c:/program files/microchip/xc32/v4.21/bin/bin/../../lib/gcc/pic32c/8.3.1/../../../../pic32c/lib/thumb/v7e-m+fp/hard\libc-musl.a(__environ.o)
 .debug_abbrev  0x00005a84       0x2e c:/program files/microchip/xc32/v4.21/bin/bin/../../lib/gcc/pic32c/8.3.1/../../../../pic32c/lib/thumb/v7e-m+fp/hard\libc-musl.a(__errno_location.o)
 .debug_abbrev  0x00005ab2      0x111 c:/program files/microchip/xc32/v4.21/bin/bin/../../lib/gcc/pic32c/8.3.1/../../../../pic32c/lib/thumb/v7e-m+fp/hard\libc-musl.a(__int_vfprintf.o)
 .debug_abbrev  0x00005bc3      0x12a c:/program files/microchip/xc32/v4.21/bin/bin/../../lib/gcc/pic32c/8.3.1/../../../../pic32c/lib/thumb/v7e-m+fp/hard\libc-musl.a(fputs.o)
 .debug_abbrev  0x00005ced      0x150 c:/program files/microchip/xc32/v4.21/bin/bin/../../lib/gcc/pic32c/8.3.1/../../../../pic32c/lib/thumb/v7e-m+fp/hard\libc-musl.a(__stdio_read.o)
 .debug_abbrev  0x00005e3d       0xdc c:/program files/microchip/xc32/v4.21/bin/bin/../../lib/gcc/pic32c/8.3.1/../../../../pic32c/lib/thumb/v7e-m+fp/hard\libc-musl.a(__towrite_rw.o)
 .debug_abbrev  0x00005f19      0x10f c:/program files/microchip/xc32/v4.21/bin/bin/../../lib/gcc/pic32c/8.3.1/../../../../pic32c/lib/thumb/v7e-m+fp/hard\libc-musl.a(fwrite.o)
 .debug_abbrev  0x00006028      0x109 c:/program files/microchip/xc32/v4.21/bin/bin/../../lib/gcc/pic32c/8.3.1/../../../../pic32c/lib/thumb/v7e-m+fp/hard\libc-musl.a(putc.o)
 .debug_abbrev  0x00006131      0x11c c:/program files/microchip/xc32/v4.21/bin/bin/../../lib/gcc/pic32c/8.3.1/../../../../pic32c/lib/thumb/v7e-m+fp/hard\libc-musl.a(setvbuf.o)
 .debug_abbrev  0x0000624d       0x63 c:/program files/microchip/xc32/v4.21/bin/bin/../../lib/gcc/pic32c/8.3.1/../../../../pic32c/lib/thumb/v7e-m+fp/hard\libc-musl.a(stpcpy.o)
 .debug_abbrev  0x000062b0       0xd8 c:/program files/microchip/xc32/v4.21/bin/bin/../../lib/gcc/pic32c/8.3.1/../../../../pic32c/lib/thumb/v7e-m+fp/hard\libc-musl.a(readv.o)
 .debug_abbrev  0x00006388      0x413 c:/program files/microchip/xc32/v4.21/bin/bin/../../lib/gcc/pic32c/8.3.1/../../../../pic32c/lib/thumb/v7e-m+fp/hard\libc-musl.a(malloc.o)
 .debug_abbrev  0x0000679b       0xa5 c:/program files/microchip/xc32/v4.21/bin/bin/../../lib/gcc/pic32c/8.3.1/../../../../pic32c/lib/thumb/v7e-m+fp/hard\libc-musl.a(expand_heap.o)
 .debug_abbrev  0x00006840       0x5a c:/program files/microchip/xc32/v4.21/bin/bin/../../lib/gcc/pic32c/8.3.1/../../../../pic32c/lib/thumb/v7e-m+fp/hard\libc-musl.a(__init_stdio.o)
 .debug_abbrev  0x0000689a      0x170 c:/program files/microchip/xc32/v4.21/bin/bin/../../lib/gcc/pic32c/8.3.1/../../../../pic32c/lib/thumb/v7e-m+fp/hard\libc-musl.a(__out.o)
 .debug_abbrev  0x00006a0a       0xf3 c:/program files/microchip/xc32/v4.21/bin/bin/../../lib/gcc/pic32c/8.3.1/../../../../pic32c/lib/thumb/v7e-m+fp/hard\libc-musl.a(__putc.o)
 .debug_abbrev  0x00006afd      0x154 c:/program files/microchip/xc32/v4.21/bin/bin/../../lib/gcc/pic32c/8.3.1/../../../../pic32c/lib/thumb/v7e-m+fp/hard\libc-musl.a(__stderr.o)
 .debug_abbrev  0x00006c51      0x122 c:/program files/microchip/xc32/v4.21/bin/bin/../../lib/gcc/pic32c/8.3.1/../../../../pic32c/lib/thumb/v7e-m+fp/hard\libc-musl.a(__stdio_close.o)
 .debug_abbrev  0x00006d73      0x1a1 c:/program files/microchip/xc32/v4.21/bin/bin/../../lib/gcc/pic32c/8.3.1/../../../../pic32c/lib/thumb/v7e-m+fp/hard\libc-musl.a(__stdio_write.o)
 .debug_abbrev  0x00006f14      0x154 c:/program files/microchip/xc32/v4.21/bin/bin/../../lib/gcc/pic32c/8.3.1/../../../../pic32c/lib/thumb/v7e-m+fp/hard\libc-musl.a(__stdout.o)
 .debug_abbrev  0x00007068       0xf8 c:/program files/microchip/xc32/v4.21/bin/bin/../../lib/gcc/pic32c/8.3.1/../../../../pic32c/lib/thumb/v7e-m+fp/hard\libc-musl.a(__towrite.o)
 .debug_abbrev  0x00007160       0xd8 c:/program files/microchip/xc32/v4.21/bin/bin/../../lib/gcc/pic32c/8.3.1/../../../../pic32c/lib/thumb/v7e-m+fp/hard\libc-musl.a(writev.o)
 .debug_abbrev  0x00007238      0x125 c:/program files/microchip/xc32/v4.21/bin/bin/../../lib/gcc/pic32c/8.3.1/../../../../pic32c/lib/thumb/v7e-m+fp/hard\libc-musl.a(__overflow.o)
 .debug_abbrev  0x0000735d      0x11f c:/program files/microchip/xc32/v4.21/bin/bin/../../lib/gcc/pic32c/8.3.1/../../../../pic32c/lib/thumb/v7e-m+fp/hard\libc-musl.a(__fwrite.o)
 .debug_abbrev  0x0000747c       0x14 c:/program files/microchip/xc32/v4.21/bin/bin/../../lib/gcc/pic32c/8.3.1/thumb/v7e-m+fp/hard\libgcc.a(_aeabi_uldivmod.o)
 .debug_abbrev  0x00007490       0xf2 c:/program files/microchip/xc32/v4.21/bin/bin/../../lib/gcc/pic32c/8.3.1/thumb/v7e-m+fp/hard\libgcc.a(_udivmoddi4.o)
 .debug_abbrev  0x00007582       0x14 c:/program files/microchip/xc32/v4.21/bin/bin/../../lib/gcc/pic32c/8.3.1/thumb/v7e-m+fp/hard\libgcc.a(_dvmd_tls.o)
 .debug_abbrev  0x00007596       0x2e c:/program files/microchip/xc32/v4.21/bin/bin/../../lib/gcc/pic32c/8.3.1/../../../../pic32c/lib/thumb/v7e-m+fp/hard\libpic32c.a(close.o)
 .debug_abbrev  0x000075c4       0x2e c:/program files/microchip/xc32/v4.21/bin/bin/../../lib/gcc/pic32c/8.3.1/../../../../pic32c/lib/thumb/v7e-m+fp/hard\libpic32c.a(lseek.o)
 .debug_abbrev  0x000075f2       0x2e c:/program files/microchip/xc32/v4.21/bin/bin/../../lib/gcc/pic32c/8.3.1/../../../../pic32c/lib/thumb/v7e-m+fp/hard\libpic32c.a(sbrk.o)

.debug_loc      0x00000000    0x10ac0
 .debug_loc     0x00000000       0xa2 build/default/production/_ext/60163342/plib_adc1.o
 .debug_loc     0x000000a2       0xa2 build/default/production/_ext/60163342/plib_adc0.o
 .debug_loc     0x00000144      0x2a1 build/default/production/_ext/60167341/plib_eic.o
 .debug_loc     0x000003e5      0x862 build/default/production/_ext/1865468468/plib_nvic.o
 .debug_loc     0x00000c47      0x83e build/default/production/_ext/1593096446/plib_nvmctrl.o
 .debug_loc     0x00001485      0x1e8 build/default/production/_ext/1865521619/plib_port.o
 .debug_loc     0x0000166d      0xd3b build/default/production/_ext/508257091/plib_sercom3_i2c_master.o
 .debug_loc     0x000023a8      0x878 build/default/production/_ext/504274921/plib_sercom7_usart.o
 .debug_loc     0x00002c20      0x878 build/default/production/_ext/504274921/plib_sercom6_usart.o
 .debug_loc     0x00003498      0x878 build/default/production/_ext/504274921/plib_sercom2_usart.o
 .debug_loc     0x00003d10      0x861 build/default/production/_ext/504274921/plib_sercom5_usart.o
 .debug_loc     0x00004571       0xeb build/default/production/_ext/829342655/plib_tc0.o
 .debug_loc     0x0000465c       0xeb build/default/production/_ext/829342655/plib_tc1.o
 .debug_loc     0x00004747       0xeb build/default/production/_ext/829342655/plib_tc5.o
 .debug_loc     0x00004832       0x6b build/default/production/_ext/60181570/plib_tcc4.o
 .debug_loc     0x0000489d      0x1c0 build/default/production/_ext/163028504/xc32_monitor.o
 .debug_loc     0x00004a5d       0x82 build/default/production/_ext/1171490990/freertos_hooks.o
 .debug_loc     0x00004adf       0x4a build/default/production/_ext/1171490990/startup_xc32.o
 .debug_loc     0x00004b29       0x45 build/default/production/_ext/1171490990/initialization.o
 .debug_loc     0x00004b6e      0x13a build/default/production/_ext/246609638/port.o
 .debug_loc     0x00004ca8      0x6de build/default/production/_ext/1665200909/heap_4.o
 .debug_loc     0x00005386       0xb2 build/default/production/_ext/404212886/list.o
 .debug_loc     0x00005438     0x19c6 build/default/production/_ext/404212886/queue.o
 .debug_loc     0x00006dfe      0xe18 build/default/production/_ext/404212886/timers.o
 .debug_loc     0x00007c16     0x263c build/default/production/_ext/404212886/FreeRTOS_tasks.o
 .debug_loc     0x0000a252      0xd52 build/default/production/_ext/1360937237/main.o
 .debug_loc     0x0000afa4      0x878 build/default/production/_ext/504274921/plib_sercom1_usart.o
 .debug_loc     0x0000b81c       0x14 c:/program files/microchip/xc32/v4.21/bin/bin/../../lib/gcc/pic32c/8.3.1/../../../../pic32c/lib/thumb/v7e-m+fp/hard\libpic32c.a(data_init_0_1.o)
 .debug_loc     0x0000b830       0x51 c:/program files/microchip/xc32/v4.21/bin/bin/../../lib/gcc/pic32c/8.3.1/../../../../pic32c/lib/thumb/v7e-m+fp/hard\libc-musl.a(__libc_start_main.o)
 .debug_loc     0x0000b881       0x91 c:/program files/microchip/xc32/v4.21/bin/bin/../../lib/gcc/pic32c/8.3.1/../../../../pic32c/lib/thumb/v7e-m+fp/hard\libc-musl.a(__sio_printf_dfoux.o)
 .debug_loc     0x0000b912      0x1ef c:/program files/microchip/xc32/v4.21/bin/bin/../../lib/gcc/pic32c/8.3.1/../../../../pic32c/lib/thumb/v7e-m+fp/hard\libc-musl.a(__fmt_d.o)
 .debug_loc     0x0000bb01      0xa5d c:/program files/microchip/xc32/v4.21/bin/bin/../../lib/gcc/pic32c/8.3.1/../../../../pic32c/lib/thumb/v7e-m+fp/hard\libc-musl.a(__fmt_fp.o)
 .debug_loc     0x0000c55e      0x10a c:/program files/microchip/xc32/v4.21/bin/bin/../../lib/gcc/pic32c/8.3.1/../../../../pic32c/lib/thumb/v7e-m+fp/hard\libc-musl.a(__fmt_o.o)
 .debug_loc     0x0000c668      0x157 c:/program files/microchip/xc32/v4.21/bin/bin/../../lib/gcc/pic32c/8.3.1/../../../../pic32c/lib/thumb/v7e-m+fp/hard\libc-musl.a(__fmt_s.o)
 .debug_loc     0x0000c7bf      0x2a2 c:/program files/microchip/xc32/v4.21/bin/bin/../../lib/gcc/pic32c/8.3.1/../../../../pic32c/lib/thumb/v7e-m+fp/hard\libc-musl.a(__fmt_u.o)
 .debug_loc     0x0000ca61      0x2a9 c:/program files/microchip/xc32/v4.21/bin/bin/../../lib/gcc/pic32c/8.3.1/../../../../pic32c/lib/thumb/v7e-m+fp/hard\libc-musl.a(__fmt_x.o)
 .debug_loc     0x0000cd0a       0xa6 c:/program files/microchip/xc32/v4.21/bin/bin/../../lib/gcc/pic32c/8.3.1/../../../../pic32c/lib/thumb/v7e-m+fp/hard\libc-musl.a(__pop_float.o)
 .debug_loc     0x0000cdb0      0x2f5 c:/program files/microchip/xc32/v4.21/bin/bin/../../lib/gcc/pic32c/8.3.1/../../../../pic32c/lib/thumb/v7e-m+fp/hard\libc-musl.a(__pop_int.o)
 .debug_loc     0x0000d0a5      0x1db c:/program files/microchip/xc32/v4.21/bin/bin/../../lib/gcc/pic32c/8.3.1/../../../../pic32c/lib/thumb/v7e-m+fp/hard\libc-musl.a(__pop_ptr.o)
 .debug_loc     0x0000d280      0x5e9 c:/program files/microchip/xc32/v4.21/bin/bin/../../lib/gcc/pic32c/8.3.1/../../../../pic32c/lib/thumb/v7e-m+fp/hard\libc-musl.a(__printf_core.o)
 .debug_loc     0x0000d869       0x25 c:/program files/microchip/xc32/v4.21/bin/bin/../../lib/gcc/pic32c/8.3.1/../../../../pic32c/lib/thumb/v7e-m+fp/hard\libc-musl.a(stdin.o)
 .debug_loc     0x0000d88e       0x20 c:/program files/microchip/xc32/v4.21/bin/bin/../../lib/gcc/pic32c/8.3.1/../../../../pic32c/lib/thumb/v7e-m+fp/hard\libc-musl.a(stdout.o)
 .debug_loc     0x0000d8ae       0x6a c:/program files/microchip/xc32/v4.21/bin/bin/../../lib/gcc/pic32c/8.3.1/../../../../pic32c/lib/thumb/v7e-m+fp/hard\libc-musl.a(puts.o)
 .debug_loc     0x0000d918       0x4a c:/program files/microchip/xc32/v4.21/bin/bin/../../lib/gcc/pic32c/8.3.1/../../../../pic32c/lib/thumb/v7e-m+fp/hard\libc-musl.a(setbuf.o)
 .debug_loc     0x0000d962       0xd8 c:/program files/microchip/xc32/v4.21/bin/bin/../../lib/gcc/pic32c/8.3.1/../../../../pic32c/lib/thumb/v7e-m+fp/hard\libc-musl.a(atoi.o)
 .debug_loc     0x0000da3a       0xe5 c:/program files/microchip/xc32/v4.21/bin/bin/../../lib/gcc/pic32c/8.3.1/../../../../pic32c/lib/thumb/v7e-m+fp/hard\libc-musl.a(memcpy.o)
 .debug_loc     0x0000db1f       0x56 c:/program files/microchip/xc32/v4.21/bin/bin/../../lib/gcc/pic32c/8.3.1/../../../../pic32c/lib/thumb/v7e-m+fp/hard\libc-musl.a(memset.o)
 .debug_loc     0x0000db75       0x47 c:/program files/microchip/xc32/v4.21/bin/bin/../../lib/gcc/pic32c/8.3.1/../../../../pic32c/lib/thumb/v7e-m+fp/hard\libc-musl.a(strlen.o)
 .debug_loc     0x0000dbbc       0x67 c:/program files/microchip/xc32/v4.21/bin/bin/../../lib/gcc/pic32c/8.3.1/../../../../pic32c/lib/thumb/v7e-m+fp/hard\libc-musl.a(strcpy.o)
 .debug_loc     0x0000dc23       0x4a c:/program files/microchip/xc32/v4.21/bin/bin/../../lib/gcc/pic32c/8.3.1/../../../../pic32c/lib/thumb/v7e-m+fp/hard\libc-musl.a(tolower.o)
 .debug_loc     0x0000dc6d       0x4a c:/program files/microchip/xc32/v4.21/bin/bin/../../lib/gcc/pic32c/8.3.1/../../../../pic32c/lib/thumb/v7e-m+fp/hard\libc-musl.a(toupper.o)
 .debug_loc     0x0000dcb7       0x88 c:/program files/microchip/xc32/v4.21/bin/bin/../../lib/gcc/pic32c/8.3.1/../../../../pic32c/lib/thumb/v7e-m+fp/hard\libc-musl.a(__int_vfprintf.o)
 .debug_loc     0x0000dd3f       0x93 c:/program files/microchip/xc32/v4.21/bin/bin/../../lib/gcc/pic32c/8.3.1/../../../../pic32c/lib/thumb/v7e-m+fp/hard\libc-musl.a(fputs.o)
 .debug_loc     0x0000ddd2      0x103 c:/program files/microchip/xc32/v4.21/bin/bin/../../lib/gcc/pic32c/8.3.1/../../../../pic32c/lib/thumb/v7e-m+fp/hard\libc-musl.a(__stdio_read.o)
 .debug_loc     0x0000ded5       0x25 c:/program files/microchip/xc32/v4.21/bin/bin/../../lib/gcc/pic32c/8.3.1/../../../../pic32c/lib/thumb/v7e-m+fp/hard\libc-musl.a(__towrite_rw.o)
 .debug_loc     0x0000defa      0x17e c:/program files/microchip/xc32/v4.21/bin/bin/../../lib/gcc/pic32c/8.3.1/../../../../pic32c/lib/thumb/v7e-m+fp/hard\libc-musl.a(fwrite.o)
 .debug_loc     0x0000e078      0x123 c:/program files/microchip/xc32/v4.21/bin/bin/../../lib/gcc/pic32c/8.3.1/../../../../pic32c/lib/thumb/v7e-m+fp/hard\libc-musl.a(putc.o)
 .debug_loc     0x0000e19b       0xd8 c:/program files/microchip/xc32/v4.21/bin/bin/../../lib/gcc/pic32c/8.3.1/../../../../pic32c/lib/thumb/v7e-m+fp/hard\libc-musl.a(setvbuf.o)
 .debug_loc     0x0000e273       0x60 c:/program files/microchip/xc32/v4.21/bin/bin/../../lib/gcc/pic32c/8.3.1/../../../../pic32c/lib/thumb/v7e-m+fp/hard\libc-musl.a(stpcpy.o)
 .debug_loc     0x0000e2d3       0xe8 c:/program files/microchip/xc32/v4.21/bin/bin/../../lib/gcc/pic32c/8.3.1/../../../../pic32c/lib/thumb/v7e-m+fp/hard\libc-musl.a(readv.o)
 .debug_loc     0x0000e3bb      0xccd c:/program files/microchip/xc32/v4.21/bin/bin/../../lib/gcc/pic32c/8.3.1/../../../../pic32c/lib/thumb/v7e-m+fp/hard\libc-musl.a(malloc.o)
 .debug_loc     0x0000f088       0x7c c:/program files/microchip/xc32/v4.21/bin/bin/../../lib/gcc/pic32c/8.3.1/../../../../pic32c/lib/thumb/v7e-m+fp/hard\libc-musl.a(expand_heap.o)
 .debug_loc     0x0000f104       0x20 c:/program files/microchip/xc32/v4.21/bin/bin/../../lib/gcc/pic32c/8.3.1/../../../../pic32c/lib/thumb/v7e-m+fp/hard\libc-musl.a(__init_stdio.o)
 .debug_loc     0x0000f124      0x1a8 c:/program files/microchip/xc32/v4.21/bin/bin/../../lib/gcc/pic32c/8.3.1/../../../../pic32c/lib/thumb/v7e-m+fp/hard\libc-musl.a(__out.o)
 .debug_loc     0x0000f2cc      0x114 c:/program files/microchip/xc32/v4.21/bin/bin/../../lib/gcc/pic32c/8.3.1/../../../../pic32c/lib/thumb/v7e-m+fp/hard\libc-musl.a(__putc.o)
 .debug_loc     0x0000f3e0       0x25 c:/program files/microchip/xc32/v4.21/bin/bin/../../lib/gcc/pic32c/8.3.1/../../../../pic32c/lib/thumb/v7e-m+fp/hard\libc-musl.a(__stderr.o)
 .debug_loc     0x0000f405      0x208 c:/program files/microchip/xc32/v4.21/bin/bin/../../lib/gcc/pic32c/8.3.1/../../../../pic32c/lib/thumb/v7e-m+fp/hard\libc-musl.a(__stdio_close.o)
 .debug_loc     0x0000f60d      0x2f1 c:/program files/microchip/xc32/v4.21/bin/bin/../../lib/gcc/pic32c/8.3.1/../../../../pic32c/lib/thumb/v7e-m+fp/hard\libc-musl.a(__stdio_write.o)
 .debug_loc     0x0000f8fe       0x25 c:/program files/microchip/xc32/v4.21/bin/bin/../../lib/gcc/pic32c/8.3.1/../../../../pic32c/lib/thumb/v7e-m+fp/hard\libc-musl.a(__stdout.o)
 .debug_loc     0x0000f923       0x7c c:/program files/microchip/xc32/v4.21/bin/bin/../../lib/gcc/pic32c/8.3.1/../../../../pic32c/lib/thumb/v7e-m+fp/hard\libc-musl.a(__towrite.o)
 .debug_loc     0x0000f99f       0xe8 c:/program files/microchip/xc32/v4.21/bin/bin/../../lib/gcc/pic32c/8.3.1/../../../../pic32c/lib/thumb/v7e-m+fp/hard\libc-musl.a(writev.o)
 .debug_loc     0x0000fa87       0xb6 c:/program files/microchip/xc32/v4.21/bin/bin/../../lib/gcc/pic32c/8.3.1/../../../../pic32c/lib/thumb/v7e-m+fp/hard\libc-musl.a(__overflow.o)
 .debug_loc     0x0000fb3d      0x10a c:/program files/microchip/xc32/v4.21/bin/bin/../../lib/gcc/pic32c/8.3.1/../../../../pic32c/lib/thumb/v7e-m+fp/hard\libc-musl.a(__fwrite.o)
 .debug_loc     0x0000fc47      0xe79 c:/program files/microchip/xc32/v4.21/bin/bin/../../lib/gcc/pic32c/8.3.1/thumb/v7e-m+fp/hard\libgcc.a(_udivmoddi4.o)

.debug_aranges  0x00000000     0x1810
 .debug_aranges
                0x00000000       0x80 build/default/production/_ext/60163342/plib_adc1.o
 .debug_aranges
                0x00000080       0x80 build/default/production/_ext/60163342/plib_adc0.o
 .debug_aranges
                0x00000100       0x20 build/default/production/_ext/1984496892/plib_clock.o
 .debug_aranges
                0x00000120       0x80 build/default/production/_ext/60167341/plib_eic.o
 .debug_aranges
                0x000001a0       0x20 build/default/production/_ext/1986646378/plib_evsys.o
 .debug_aranges
                0x000001c0       0x38 build/default/production/_ext/1865468468/plib_nvic.o
 .debug_aranges
                0x000001f8       0xd8 build/default/production/_ext/1593096446/plib_nvmctrl.o
 .debug_aranges
                0x000002d0       0x70 build/default/production/_ext/1865521619/plib_port.o
 .debug_aranges
                0x00000340       0x70 build/default/production/_ext/508257091/plib_sercom3_i2c_master.o
 .debug_aranges
                0x000003b0       0xe0 build/default/production/_ext/504274921/plib_sercom7_usart.o
 .debug_aranges
                0x00000490       0xe0 build/default/production/_ext/504274921/plib_sercom6_usart.o
 .debug_aranges
                0x00000570       0xe0 build/default/production/_ext/504274921/plib_sercom2_usart.o
 .debug_aranges
                0x00000650       0xa8 build/default/production/_ext/504274921/plib_sercom5_usart.o
 .debug_aranges
                0x000006f8       0x70 build/default/production/_ext/829342655/plib_tc0.o
 .debug_aranges
                0x00000768       0x70 build/default/production/_ext/829342655/plib_tc1.o
 .debug_aranges
                0x000007d8       0x70 build/default/production/_ext/829342655/plib_tc5.o
 .debug_aranges
                0x00000848       0x70 build/default/production/_ext/60181570/plib_tcc4.o
 .debug_aranges
                0x000008b8       0x28 build/default/production/_ext/163028504/xc32_monitor.o
 .debug_aranges
                0x000008e0       0x40 build/default/production/_ext/1171490990/freertos_hooks.o
 .debug_aranges
                0x00000920       0x28 build/default/production/_ext/1171490990/startup_xc32.o
 .debug_aranges
                0x00000948       0x20 build/default/production/_ext/1171490990/interrupts.o
 .debug_aranges
                0x00000968       0x48 build/default/production/_ext/1171490990/exceptions.o
 .debug_aranges
                0x000009b0       0x20 build/default/production/_ext/1171490990/initialization.o
 .debug_aranges
                0x000009d0       0x78 build/default/production/_ext/246609638/port.o
 .debug_aranges
                0x00000a48       0x58 build/default/production/_ext/1665200909/heap_4.o
 .debug_aranges
                0x00000aa0       0x40 build/default/production/_ext/404212886/list.o
 .debug_aranges
                0x00000ae0       0xd0 build/default/production/_ext/404212886/queue.o
 .debug_aranges
                0x00000bb0       0xb0 build/default/production/_ext/404212886/timers.o
 .debug_aranges
                0x00000c60      0x188 build/default/production/_ext/404212886/FreeRTOS_tasks.o
 .debug_aranges
                0x00000de8      0x130 build/default/production/_ext/1360937237/main.o
 .debug_aranges
                0x00000f18       0xe0 build/default/production/_ext/504274921/plib_sercom1_usart.o
 .debug_aranges
                0x00000ff8       0x20 c:/program files/microchip/xc32/v4.21/bin/bin/../../lib/gcc/pic32c/8.3.1/../../../../pic32c/lib/thumb/v7e-m+fp/hard\libpic32c.a(data_init_wrapper.o)
 .debug_aranges
                0x00001018       0x20 c:/program files/microchip/xc32/v4.21/bin/bin/../../lib/gcc/pic32c/8.3.1/../../../../pic32c/lib/thumb/v7e-m+fp/hard\libpic32c.a(data_init_0_1.o)
 .debug_aranges
                0x00001038       0x28 c:/program files/microchip/xc32/v4.21/bin/bin/../../lib/gcc/pic32c/8.3.1/../../../../pic32c/lib/thumb/v7e-m+fp/hard\libc-musl.a(__libc_start_main.o)
 .debug_aranges
                0x00001060       0x18 c:/program files/microchip/xc32/v4.21/bin/bin/../../lib/gcc/pic32c/8.3.1/../../../../pic32c/lib/thumb/v7e-m+fp/hard\libc-musl.a(libc.o)
 .debug_aranges
                0x00001078       0x28 c:/program files/microchip/xc32/v4.21/bin/bin/../../lib/gcc/pic32c/8.3.1/../../../../pic32c/lib/thumb/v7e-m+fp/hard\libc-musl.a(__sio_printf_dfoux.o)
 .debug_aranges
                0x000010a0       0x20 c:/program files/microchip/xc32/v4.21/bin/bin/../../lib/gcc/pic32c/8.3.1/../../../../pic32c/lib/thumb/v7e-m+fp/hard\libc-musl.a(__fmt_d.o)
 .debug_aranges
                0x000010c0       0x20 c:/program files/microchip/xc32/v4.21/bin/bin/../../lib/gcc/pic32c/8.3.1/../../../../pic32c/lib/thumb/v7e-m+fp/hard\libc-musl.a(__fmt_fp.o)
 .debug_aranges
                0x000010e0       0x20 c:/program files/microchip/xc32/v4.21/bin/bin/../../lib/gcc/pic32c/8.3.1/../../../../pic32c/lib/thumb/v7e-m+fp/hard\libc-musl.a(__fmt_o.o)
 .debug_aranges
                0x00001100       0x20 c:/program files/microchip/xc32/v4.21/bin/bin/../../lib/gcc/pic32c/8.3.1/../../../../pic32c/lib/thumb/v7e-m+fp/hard\libc-musl.a(__fmt_s.o)
 .debug_aranges
                0x00001120       0x28 c:/program files/microchip/xc32/v4.21/bin/bin/../../lib/gcc/pic32c/8.3.1/../../../../pic32c/lib/thumb/v7e-m+fp/hard\libc-musl.a(__fmt_u.o)
 .debug_aranges
                0x00001148       0x20 c:/program files/microchip/xc32/v4.21/bin/bin/../../lib/gcc/pic32c/8.3.1/../../../../pic32c/lib/thumb/v7e-m+fp/hard\libc-musl.a(__fmt_x.o)
 .debug_aranges
                0x00001168       0x20 c:/program files/microchip/xc32/v4.21/bin/bin/../../lib/gcc/pic32c/8.3.1/../../../../pic32c/lib/thumb/v7e-m+fp/hard\libc-musl.a(__pop_float.o)
 .debug_aranges
                0x00001188       0x20 c:/program files/microchip/xc32/v4.21/bin/bin/../../lib/gcc/pic32c/8.3.1/../../../../pic32c/lib/thumb/v7e-m+fp/hard\libc-musl.a(__pop_int.o)
 .debug_aranges
                0x000011a8       0x20 c:/program files/microchip/xc32/v4.21/bin/bin/../../lib/gcc/pic32c/8.3.1/../../../../pic32c/lib/thumb/v7e-m+fp/hard\libc-musl.a(__pop_ptr.o)
 .debug_aranges
                0x000011c8       0x50 c:/program files/microchip/xc32/v4.21/bin/bin/../../lib/gcc/pic32c/8.3.1/../../../../pic32c/lib/thumb/v7e-m+fp/hard\libc-musl.a(__printf_core.o)
 .debug_aranges
                0x00001218       0x28 c:/program files/microchip/xc32/v4.21/bin/bin/../../lib/gcc/pic32c/8.3.1/../../../../pic32c/lib/thumb/v7e-m+fp/hard\libc-musl.a(stdin.o)
 .debug_aranges
                0x00001240       0x30 c:/program files/microchip/xc32/v4.21/bin/bin/../../lib/gcc/pic32c/8.3.1/../../../../pic32c/lib/thumb/v7e-m+fp/hard\libc-musl.a(stdout.o)
 .debug_aranges
                0x00001270       0x20 c:/program files/microchip/xc32/v4.21/bin/bin/../../lib/gcc/pic32c/8.3.1/../../../../pic32c/lib/thumb/v7e-m+fp/hard\libc-musl.a(puts.o)
 .debug_aranges
                0x00001290       0x20 c:/program files/microchip/xc32/v4.21/bin/bin/../../lib/gcc/pic32c/8.3.1/../../../../pic32c/lib/thumb/v7e-m+fp/hard\libc-musl.a(setbuf.o)
 .debug_aranges
                0x000012b0       0x20 c:/program files/microchip/xc32/v4.21/bin/bin/../../lib/gcc/pic32c/8.3.1/../../../../pic32c/lib/thumb/v7e-m+fp/hard\libc-musl.a(atoi.o)
 .debug_aranges
                0x000012d0       0x20 c:/program files/microchip/xc32/v4.21/bin/bin/../../lib/gcc/pic32c/8.3.1/../../../../pic32c/lib/thumb/v7e-m+fp/hard\libc-musl.a(memcpy.o)
 .debug_aranges
                0x000012f0       0x20 c:/program files/microchip/xc32/v4.21/bin/bin/../../lib/gcc/pic32c/8.3.1/../../../../pic32c/lib/thumb/v7e-m+fp/hard\libc-musl.a(memset.o)
 .debug_aranges
                0x00001310       0x20 c:/program files/microchip/xc32/v4.21/bin/bin/../../lib/gcc/pic32c/8.3.1/../../../../pic32c/lib/thumb/v7e-m+fp/hard\libc-musl.a(strlen.o)
 .debug_aranges
                0x00001330       0x20 c:/program files/microchip/xc32/v4.21/bin/bin/../../lib/gcc/pic32c/8.3.1/../../../../pic32c/lib/thumb/v7e-m+fp/hard\libc-musl.a(strcpy.o)
 .debug_aranges
                0x00001350       0x28 c:/program files/microchip/xc32/v4.21/bin/bin/../../lib/gcc/pic32c/8.3.1/../../../../pic32c/lib/thumb/v7e-m+fp/hard\libc-musl.a(tolower.o)
 .debug_aranges
                0x00001378       0x28 c:/program files/microchip/xc32/v4.21/bin/bin/../../lib/gcc/pic32c/8.3.1/../../../../pic32c/lib/thumb/v7e-m+fp/hard\libc-musl.a(toupper.o)
 .debug_aranges
                0x000013a0       0x18 c:/program files/microchip/xc32/v4.21/bin/bin/../../lib/gcc/pic32c/8.3.1/../../../../pic32c/lib/thumb/v7e-m+fp/hard\libc-musl.a(__environ.o)
 .debug_aranges
                0x000013b8       0x18 c:/program files/microchip/xc32/v4.21/bin/bin/../../lib/gcc/pic32c/8.3.1/../../../../pic32c/lib/thumb/v7e-m+fp/hard\libc-musl.a(__errno_location.o)
 .debug_aranges
                0x000013d0       0x20 c:/program files/microchip/xc32/v4.21/bin/bin/../../lib/gcc/pic32c/8.3.1/../../../../pic32c/lib/thumb/v7e-m+fp/hard\libc-musl.a(__int_vfprintf.o)
 .debug_aranges
                0x000013f0       0x20 c:/program files/microchip/xc32/v4.21/bin/bin/../../lib/gcc/pic32c/8.3.1/../../../../pic32c/lib/thumb/v7e-m+fp/hard\libc-musl.a(fputs.o)
 .debug_aranges
                0x00001410       0x20 c:/program files/microchip/xc32/v4.21/bin/bin/../../lib/gcc/pic32c/8.3.1/../../../../pic32c/lib/thumb/v7e-m+fp/hard\libc-musl.a(__stdio_read.o)
 .debug_aranges
                0x00001430       0x20 c:/program files/microchip/xc32/v4.21/bin/bin/../../lib/gcc/pic32c/8.3.1/../../../../pic32c/lib/thumb/v7e-m+fp/hard\libc-musl.a(__towrite_rw.o)
 .debug_aranges
                0x00001450       0x28 c:/program files/microchip/xc32/v4.21/bin/bin/../../lib/gcc/pic32c/8.3.1/../../../../pic32c/lib/thumb/v7e-m+fp/hard\libc-musl.a(fwrite.o)
 .debug_aranges
                0x00001478       0x30 c:/program files/microchip/xc32/v4.21/bin/bin/../../lib/gcc/pic32c/8.3.1/../../../../pic32c/lib/thumb/v7e-m+fp/hard\libc-musl.a(putc.o)
 .debug_aranges
                0x000014a8       0x28 c:/program files/microchip/xc32/v4.21/bin/bin/../../lib/gcc/pic32c/8.3.1/../../../../pic32c/lib/thumb/v7e-m+fp/hard\libc-musl.a(setvbuf.o)
 .debug_aranges
                0x000014d0       0x20 c:/program files/microchip/xc32/v4.21/bin/bin/../../lib/gcc/pic32c/8.3.1/../../../../pic32c/lib/thumb/v7e-m+fp/hard\libc-musl.a(stpcpy.o)
 .debug_aranges
                0x000014f0       0x20 c:/program files/microchip/xc32/v4.21/bin/bin/../../lib/gcc/pic32c/8.3.1/../../../../pic32c/lib/thumb/v7e-m+fp/hard\libc-musl.a(readv.o)
 .debug_aranges
                0x00001510       0x70 c:/program files/microchip/xc32/v4.21/bin/bin/../../lib/gcc/pic32c/8.3.1/../../../../pic32c/lib/thumb/v7e-m+fp/hard\libc-musl.a(malloc.o)
 .debug_aranges
                0x00001580       0x20 c:/program files/microchip/xc32/v4.21/bin/bin/../../lib/gcc/pic32c/8.3.1/../../../../pic32c/lib/thumb/v7e-m+fp/hard\libc-musl.a(expand_heap.o)
 .debug_aranges
                0x000015a0       0x28 c:/program files/microchip/xc32/v4.21/bin/bin/../../lib/gcc/pic32c/8.3.1/../../../../pic32c/lib/thumb/v7e-m+fp/hard\libc-musl.a(__init_stdio.o)
 .debug_aranges
                0x000015c8       0x28 c:/program files/microchip/xc32/v4.21/bin/bin/../../lib/gcc/pic32c/8.3.1/../../../../pic32c/lib/thumb/v7e-m+fp/hard\libc-musl.a(__out.o)
 .debug_aranges
                0x000015f0       0x20 c:/program files/microchip/xc32/v4.21/bin/bin/../../lib/gcc/pic32c/8.3.1/../../../../pic32c/lib/thumb/v7e-m+fp/hard\libc-musl.a(__putc.o)
 .debug_aranges
                0x00001610       0x30 c:/program files/microchip/xc32/v4.21/bin/bin/../../lib/gcc/pic32c/8.3.1/../../../../pic32c/lib/thumb/v7e-m+fp/hard\libc-musl.a(__stderr.o)
 .debug_aranges
                0x00001640       0x28 c:/program files/microchip/xc32/v4.21/bin/bin/../../lib/gcc/pic32c/8.3.1/../../../../pic32c/lib/thumb/v7e-m+fp/hard\libc-musl.a(__stdio_close.o)
 .debug_aranges
                0x00001668       0x28 c:/program files/microchip/xc32/v4.21/bin/bin/../../lib/gcc/pic32c/8.3.1/../../../../pic32c/lib/thumb/v7e-m+fp/hard\libc-musl.a(__stdio_write.o)
 .debug_aranges
                0x00001690       0x30 c:/program files/microchip/xc32/v4.21/bin/bin/../../lib/gcc/pic32c/8.3.1/../../../../pic32c/lib/thumb/v7e-m+fp/hard\libc-musl.a(__stdout.o)
 .debug_aranges
                0x000016c0       0x28 c:/program files/microchip/xc32/v4.21/bin/bin/../../lib/gcc/pic32c/8.3.1/../../../../pic32c/lib/thumb/v7e-m+fp/hard\libc-musl.a(__towrite.o)
 .debug_aranges
                0x000016e8       0x20 c:/program files/microchip/xc32/v4.21/bin/bin/../../lib/gcc/pic32c/8.3.1/../../../../pic32c/lib/thumb/v7e-m+fp/hard\libc-musl.a(writev.o)
 .debug_aranges
                0x00001708       0x20 c:/program files/microchip/xc32/v4.21/bin/bin/../../lib/gcc/pic32c/8.3.1/../../../../pic32c/lib/thumb/v7e-m+fp/hard\libc-musl.a(__overflow.o)
 .debug_aranges
                0x00001728       0x28 c:/program files/microchip/xc32/v4.21/bin/bin/../../lib/gcc/pic32c/8.3.1/../../../../pic32c/lib/thumb/v7e-m+fp/hard\libc-musl.a(__fwrite.o)
 .debug_aranges
                0x00001750       0x20 c:/program files/microchip/xc32/v4.21/bin/bin/../../lib/gcc/pic32c/8.3.1/thumb/v7e-m+fp/hard\libgcc.a(_aeabi_uldivmod.o)
 .debug_aranges
                0x00001770       0x20 c:/program files/microchip/xc32/v4.21/bin/bin/../../lib/gcc/pic32c/8.3.1/thumb/v7e-m+fp/hard\libgcc.a(_udivmoddi4.o)
 .debug_aranges
                0x00001790       0x20 c:/program files/microchip/xc32/v4.21/bin/bin/../../lib/gcc/pic32c/8.3.1/thumb/v7e-m+fp/hard\libgcc.a(_dvmd_tls.o)
 .debug_aranges
                0x000017b0       0x20 c:/program files/microchip/xc32/v4.21/bin/bin/../../lib/gcc/pic32c/8.3.1/../../../../pic32c/lib/thumb/v7e-m+fp/hard\libpic32c.a(close.o)
 .debug_aranges
                0x000017d0       0x20 c:/program files/microchip/xc32/v4.21/bin/bin/../../lib/gcc/pic32c/8.3.1/../../../../pic32c/lib/thumb/v7e-m+fp/hard\libpic32c.a(lseek.o)
 .debug_aranges
                0x000017f0       0x20 c:/program files/microchip/xc32/v4.21/bin/bin/../../lib/gcc/pic32c/8.3.1/../../../../pic32c/lib/thumb/v7e-m+fp/hard\libpic32c.a(sbrk.o)

.debug_ranges   0x00000000     0x1948
 .debug_ranges  0x00000000       0x70 build/default/production/_ext/60163342/plib_adc1.o
 .debug_ranges  0x00000070       0x70 build/default/production/_ext/60163342/plib_adc0.o
 .debug_ranges  0x000000e0       0x10 build/default/production/_ext/1984496892/plib_clock.o
 .debug_ranges  0x000000f0       0x70 build/default/production/_ext/60167341/plib_eic.o
 .debug_ranges  0x00000160       0x10 build/default/production/_ext/1986646378/plib_evsys.o
 .debug_ranges  0x00000170       0x28 build/default/production/_ext/1865468468/plib_nvic.o
 .debug_ranges  0x00000198       0xc8 build/default/production/_ext/1593096446/plib_nvmctrl.o
 .debug_ranges  0x00000260       0x60 build/default/production/_ext/1865521619/plib_port.o
 .debug_ranges  0x000002c0      0x110 build/default/production/_ext/508257091/plib_sercom3_i2c_master.o
 .debug_ranges  0x000003d0      0x120 build/default/production/_ext/504274921/plib_sercom7_usart.o
 .debug_ranges  0x000004f0      0x120 build/default/production/_ext/504274921/plib_sercom6_usart.o
 .debug_ranges  0x00000610      0x120 build/default/production/_ext/504274921/plib_sercom2_usart.o
 .debug_ranges  0x00000730       0x98 build/default/production/_ext/504274921/plib_sercom5_usart.o
 .debug_ranges  0x000007c8       0x60 build/default/production/_ext/829342655/plib_tc0.o
 .debug_ranges  0x00000828       0x60 build/default/production/_ext/829342655/plib_tc1.o
 .debug_ranges  0x00000888       0x60 build/default/production/_ext/829342655/plib_tc5.o
 .debug_ranges  0x000008e8       0x60 build/default/production/_ext/60181570/plib_tcc4.o
 .debug_ranges  0x00000948       0x18 build/default/production/_ext/163028504/xc32_monitor.o
 .debug_ranges  0x00000960       0x30 build/default/production/_ext/1171490990/freertos_hooks.o
 .debug_ranges  0x00000990       0x18 build/default/production/_ext/1171490990/startup_xc32.o
 .debug_ranges  0x000009a8       0x10 build/default/production/_ext/1171490990/interrupts.o
 .debug_ranges  0x000009b8       0x38 build/default/production/_ext/1171490990/exceptions.o
 .debug_ranges  0x000009f0       0x10 build/default/production/_ext/1171490990/initialization.o
 .debug_ranges  0x00000a00       0x68 build/default/production/_ext/246609638/port.o
 .debug_ranges  0x00000a68       0x48 build/default/production/_ext/1665200909/heap_4.o
 .debug_ranges  0x00000ab0       0x30 build/default/production/_ext/404212886/list.o
 .debug_ranges  0x00000ae0      0x180 build/default/production/_ext/404212886/queue.o
 .debug_ranges  0x00000c60       0xe0 build/default/production/_ext/404212886/timers.o
 .debug_ranges  0x00000d40      0x2d0 build/default/production/_ext/404212886/FreeRTOS_tasks.o
 .debug_ranges  0x00001010      0x170 build/default/production/_ext/1360937237/main.o
 .debug_ranges  0x00001180      0x120 build/default/production/_ext/504274921/plib_sercom1_usart.o
 .debug_ranges  0x000012a0       0x10 c:/program files/microchip/xc32/v4.21/bin/bin/../../lib/gcc/pic32c/8.3.1/../../../../pic32c/lib/thumb/v7e-m+fp/hard\libpic32c.a(data_init_wrapper.o)
 .debug_ranges  0x000012b0       0x10 c:/program files/microchip/xc32/v4.21/bin/bin/../../lib/gcc/pic32c/8.3.1/../../../../pic32c/lib/thumb/v7e-m+fp/hard\libpic32c.a(data_init_0_1.o)
 .debug_ranges  0x000012c0       0x40 c:/program files/microchip/xc32/v4.21/bin/bin/../../lib/gcc/pic32c/8.3.1/../../../../pic32c/lib/thumb/v7e-m+fp/hard\libc-musl.a(__libc_start_main.o)
 .debug_ranges  0x00001300       0x18 c:/program files/microchip/xc32/v4.21/bin/bin/../../lib/gcc/pic32c/8.3.1/../../../../pic32c/lib/thumb/v7e-m+fp/hard\libc-musl.a(__sio_printf_dfoux.o)
 .debug_ranges  0x00001318       0x10 c:/program files/microchip/xc32/v4.21/bin/bin/../../lib/gcc/pic32c/8.3.1/../../../../pic32c/lib/thumb/v7e-m+fp/hard\libc-musl.a(__fmt_d.o)
 .debug_ranges  0x00001328       0x10 c:/program files/microchip/xc32/v4.21/bin/bin/../../lib/gcc/pic32c/8.3.1/../../../../pic32c/lib/thumb/v7e-m+fp/hard\libc-musl.a(__fmt_fp.o)
 .debug_ranges  0x00001338       0x10 c:/program files/microchip/xc32/v4.21/bin/bin/../../lib/gcc/pic32c/8.3.1/../../../../pic32c/lib/thumb/v7e-m+fp/hard\libc-musl.a(__fmt_o.o)
 .debug_ranges  0x00001348       0x10 c:/program files/microchip/xc32/v4.21/bin/bin/../../lib/gcc/pic32c/8.3.1/../../../../pic32c/lib/thumb/v7e-m+fp/hard\libc-musl.a(__fmt_s.o)
 .debug_ranges  0x00001358       0x18 c:/program files/microchip/xc32/v4.21/bin/bin/../../lib/gcc/pic32c/8.3.1/../../../../pic32c/lib/thumb/v7e-m+fp/hard\libc-musl.a(__fmt_u.o)
 .debug_ranges  0x00001370       0x10 c:/program files/microchip/xc32/v4.21/bin/bin/../../lib/gcc/pic32c/8.3.1/../../../../pic32c/lib/thumb/v7e-m+fp/hard\libc-musl.a(__fmt_x.o)
 .debug_ranges  0x00001380       0x10 c:/program files/microchip/xc32/v4.21/bin/bin/../../lib/gcc/pic32c/8.3.1/../../../../pic32c/lib/thumb/v7e-m+fp/hard\libc-musl.a(__pop_float.o)
 .debug_ranges  0x00001390       0x10 c:/program files/microchip/xc32/v4.21/bin/bin/../../lib/gcc/pic32c/8.3.1/../../../../pic32c/lib/thumb/v7e-m+fp/hard\libc-musl.a(__pop_int.o)
 .debug_ranges  0x000013a0       0x10 c:/program files/microchip/xc32/v4.21/bin/bin/../../lib/gcc/pic32c/8.3.1/../../../../pic32c/lib/thumb/v7e-m+fp/hard\libc-musl.a(__pop_ptr.o)
 .debug_ranges  0x000013b0       0x68 c:/program files/microchip/xc32/v4.21/bin/bin/../../lib/gcc/pic32c/8.3.1/../../../../pic32c/lib/thumb/v7e-m+fp/hard\libc-musl.a(__printf_core.o)
 .debug_ranges  0x00001418       0x18 c:/program files/microchip/xc32/v4.21/bin/bin/../../lib/gcc/pic32c/8.3.1/../../../../pic32c/lib/thumb/v7e-m+fp/hard\libc-musl.a(stdin.o)
 .debug_ranges  0x00001430       0x20 c:/program files/microchip/xc32/v4.21/bin/bin/../../lib/gcc/pic32c/8.3.1/../../../../pic32c/lib/thumb/v7e-m+fp/hard\libc-musl.a(stdout.o)
 .debug_ranges  0x00001450       0x10 c:/program files/microchip/xc32/v4.21/bin/bin/../../lib/gcc/pic32c/8.3.1/../../../../pic32c/lib/thumb/v7e-m+fp/hard\libc-musl.a(puts.o)
 .debug_ranges  0x00001460       0x10 c:/program files/microchip/xc32/v4.21/bin/bin/../../lib/gcc/pic32c/8.3.1/../../../../pic32c/lib/thumb/v7e-m+fp/hard\libc-musl.a(setbuf.o)
 .debug_ranges  0x00001470       0x10 c:/program files/microchip/xc32/v4.21/bin/bin/../../lib/gcc/pic32c/8.3.1/../../../../pic32c/lib/thumb/v7e-m+fp/hard\libc-musl.a(atoi.o)
 .debug_ranges  0x00001480       0x10 c:/program files/microchip/xc32/v4.21/bin/bin/../../lib/gcc/pic32c/8.3.1/../../../../pic32c/lib/thumb/v7e-m+fp/hard\libc-musl.a(memcpy.o)
 .debug_ranges  0x00001490       0x10 c:/program files/microchip/xc32/v4.21/bin/bin/../../lib/gcc/pic32c/8.3.1/../../../../pic32c/lib/thumb/v7e-m+fp/hard\libc-musl.a(memset.o)
 .debug_ranges  0x000014a0       0x10 c:/program files/microchip/xc32/v4.21/bin/bin/../../lib/gcc/pic32c/8.3.1/../../../../pic32c/lib/thumb/v7e-m+fp/hard\libc-musl.a(strlen.o)
 .debug_ranges  0x000014b0       0x10 c:/program files/microchip/xc32/v4.21/bin/bin/../../lib/gcc/pic32c/8.3.1/../../../../pic32c/lib/thumb/v7e-m+fp/hard\libc-musl.a(strcpy.o)
 .debug_ranges  0x000014c0       0x18 c:/program files/microchip/xc32/v4.21/bin/bin/../../lib/gcc/pic32c/8.3.1/../../../../pic32c/lib/thumb/v7e-m+fp/hard\libc-musl.a(tolower.o)
 .debug_ranges  0x000014d8       0x18 c:/program files/microchip/xc32/v4.21/bin/bin/../../lib/gcc/pic32c/8.3.1/../../../../pic32c/lib/thumb/v7e-m+fp/hard\libc-musl.a(toupper.o)
 .debug_ranges  0x000014f0       0x10 c:/program files/microchip/xc32/v4.21/bin/bin/../../lib/gcc/pic32c/8.3.1/../../../../pic32c/lib/thumb/v7e-m+fp/hard\libc-musl.a(__int_vfprintf.o)
 .debug_ranges  0x00001500       0x10 c:/program files/microchip/xc32/v4.21/bin/bin/../../lib/gcc/pic32c/8.3.1/../../../../pic32c/lib/thumb/v7e-m+fp/hard\libc-musl.a(fputs.o)
 .debug_ranges  0x00001510       0x10 c:/program files/microchip/xc32/v4.21/bin/bin/../../lib/gcc/pic32c/8.3.1/../../../../pic32c/lib/thumb/v7e-m+fp/hard\libc-musl.a(__stdio_read.o)
 .debug_ranges  0x00001520       0x10 c:/program files/microchip/xc32/v4.21/bin/bin/../../lib/gcc/pic32c/8.3.1/../../../../pic32c/lib/thumb/v7e-m+fp/hard\libc-musl.a(__towrite_rw.o)
 .debug_ranges  0x00001530       0x18 c:/program files/microchip/xc32/v4.21/bin/bin/../../lib/gcc/pic32c/8.3.1/../../../../pic32c/lib/thumb/v7e-m+fp/hard\libc-musl.a(fwrite.o)
 .debug_ranges  0x00001548       0x20 c:/program files/microchip/xc32/v4.21/bin/bin/../../lib/gcc/pic32c/8.3.1/../../../../pic32c/lib/thumb/v7e-m+fp/hard\libc-musl.a(putc.o)
 .debug_ranges  0x00001568       0x18 c:/program files/microchip/xc32/v4.21/bin/bin/../../lib/gcc/pic32c/8.3.1/../../../../pic32c/lib/thumb/v7e-m+fp/hard\libc-musl.a(setvbuf.o)
 .debug_ranges  0x00001580       0x10 c:/program files/microchip/xc32/v4.21/bin/bin/../../lib/gcc/pic32c/8.3.1/../../../../pic32c/lib/thumb/v7e-m+fp/hard\libc-musl.a(stpcpy.o)
 .debug_ranges  0x00001590       0x10 c:/program files/microchip/xc32/v4.21/bin/bin/../../lib/gcc/pic32c/8.3.1/../../../../pic32c/lib/thumb/v7e-m+fp/hard\libc-musl.a(readv.o)
 .debug_ranges  0x000015a0      0x1a0 c:/program files/microchip/xc32/v4.21/bin/bin/../../lib/gcc/pic32c/8.3.1/../../../../pic32c/lib/thumb/v7e-m+fp/hard\libc-musl.a(malloc.o)
 .debug_ranges  0x00001740       0x10 c:/program files/microchip/xc32/v4.21/bin/bin/../../lib/gcc/pic32c/8.3.1/../../../../pic32c/lib/thumb/v7e-m+fp/hard\libc-musl.a(expand_heap.o)
 .debug_ranges  0x00001750       0x18 c:/program files/microchip/xc32/v4.21/bin/bin/../../lib/gcc/pic32c/8.3.1/../../../../pic32c/lib/thumb/v7e-m+fp/hard\libc-musl.a(__init_stdio.o)
 .debug_ranges  0x00001768       0x18 c:/program files/microchip/xc32/v4.21/bin/bin/../../lib/gcc/pic32c/8.3.1/../../../../pic32c/lib/thumb/v7e-m+fp/hard\libc-musl.a(__out.o)
 .debug_ranges  0x00001780       0x10 c:/program files/microchip/xc32/v4.21/bin/bin/../../lib/gcc/pic32c/8.3.1/../../../../pic32c/lib/thumb/v7e-m+fp/hard\libc-musl.a(__putc.o)
 .debug_ranges  0x00001790       0x20 c:/program files/microchip/xc32/v4.21/bin/bin/../../lib/gcc/pic32c/8.3.1/../../../../pic32c/lib/thumb/v7e-m+fp/hard\libc-musl.a(__stderr.o)
 .debug_ranges  0x000017b0       0x18 c:/program files/microchip/xc32/v4.21/bin/bin/../../lib/gcc/pic32c/8.3.1/../../../../pic32c/lib/thumb/v7e-m+fp/hard\libc-musl.a(__stdio_close.o)
 .debug_ranges  0x000017c8       0x30 c:/program files/microchip/xc32/v4.21/bin/bin/../../lib/gcc/pic32c/8.3.1/../../../../pic32c/lib/thumb/v7e-m+fp/hard\libc-musl.a(__stdio_write.o)
 .debug_ranges  0x000017f8       0x20 c:/program files/microchip/xc32/v4.21/bin/bin/../../lib/gcc/pic32c/8.3.1/../../../../pic32c/lib/thumb/v7e-m+fp/hard\libc-musl.a(__stdout.o)
 .debug_ranges  0x00001818       0x18 c:/program files/microchip/xc32/v4.21/bin/bin/../../lib/gcc/pic32c/8.3.1/../../../../pic32c/lib/thumb/v7e-m+fp/hard\libc-musl.a(__towrite.o)
 .debug_ranges  0x00001830       0x10 c:/program files/microchip/xc32/v4.21/bin/bin/../../lib/gcc/pic32c/8.3.1/../../../../pic32c/lib/thumb/v7e-m+fp/hard\libc-musl.a(writev.o)
 .debug_ranges  0x00001840       0x10 c:/program files/microchip/xc32/v4.21/bin/bin/../../lib/gcc/pic32c/8.3.1/../../../../pic32c/lib/thumb/v7e-m+fp/hard\libc-musl.a(__overflow.o)
 .debug_ranges  0x00001850       0x18 c:/program files/microchip/xc32/v4.21/bin/bin/../../lib/gcc/pic32c/8.3.1/../../../../pic32c/lib/thumb/v7e-m+fp/hard\libc-musl.a(__fwrite.o)
 .debug_ranges  0x00001868       0xb0 c:/program files/microchip/xc32/v4.21/bin/bin/../../lib/gcc/pic32c/8.3.1/thumb/v7e-m+fp/hard\libgcc.a(_udivmoddi4.o)
 .debug_ranges  0x00001918       0x10 c:/program files/microchip/xc32/v4.21/bin/bin/../../lib/gcc/pic32c/8.3.1/../../../../pic32c/lib/thumb/v7e-m+fp/hard\libpic32c.a(close.o)
 .debug_ranges  0x00001928       0x10 c:/program files/microchip/xc32/v4.21/bin/bin/../../lib/gcc/pic32c/8.3.1/../../../../pic32c/lib/thumb/v7e-m+fp/hard\libpic32c.a(lseek.o)
 .debug_ranges  0x00001938       0x10 c:/program files/microchip/xc32/v4.21/bin/bin/../../lib/gcc/pic32c/8.3.1/../../../../pic32c/lib/thumb/v7e-m+fp/hard\libpic32c.a(sbrk.o)

.debug_line     0x00000000    0x1246f
 .debug_line    0x00000000      0x34e build/default/production/_ext/60163342/plib_adc1.o
 .debug_line    0x0000034e      0x34e build/default/production/_ext/60163342/plib_adc0.o
 .debug_line    0x0000069c      0x390 build/default/production/_ext/1984496892/plib_clock.o
 .debug_line    0x00000a2c      0x444 build/default/production/_ext/60167341/plib_eic.o
 .debug_line    0x00000e70       0x66 build/default/production/_ext/1986646378/plib_evsys.o
 .debug_line    0x00000ed6      0x984 build/default/production/_ext/1865468468/plib_nvic.o
 .debug_line    0x0000185a      0x5c2 build/default/production/_ext/1593096446/plib_nvmctrl.o
 .debug_line    0x00001e1c      0x3f9 build/default/production/_ext/1865521619/plib_port.o
 .debug_line    0x00002215      0x812 build/default/production/_ext/508257091/plib_sercom3_i2c_master.o
 .debug_line    0x00002a27      0x9b0 build/default/production/_ext/504274921/plib_sercom7_usart.o
 .debug_line    0x000033d7      0x9b0 build/default/production/_ext/504274921/plib_sercom6_usart.o
 .debug_line    0x00003d87      0x9b0 build/default/production/_ext/504274921/plib_sercom2_usart.o
 .debug_line    0x00004737      0x646 build/default/production/_ext/504274921/plib_sercom5_usart.o
 .debug_line    0x00004d7d      0x306 build/default/production/_ext/829342655/plib_tc0.o
 .debug_line    0x00005083      0x306 build/default/production/_ext/829342655/plib_tc1.o
 .debug_line    0x00005389      0x306 build/default/production/_ext/829342655/plib_tc5.o
 .debug_line    0x0000568f      0x2e7 build/default/production/_ext/60181570/plib_tcc4.o
 .debug_line    0x00005976      0x151 build/default/production/_ext/163028504/xc32_monitor.o
 .debug_line    0x00005ac7      0x1db build/default/production/_ext/1171490990/freertos_hooks.o
 .debug_line    0x00005ca2      0x246 build/default/production/_ext/1171490990/startup_xc32.o
 .debug_line    0x00005ee8       0xba build/default/production/_ext/1171490990/interrupts.o
 .debug_line    0x00005fa2       0xc6 build/default/production/_ext/1171490990/exceptions.o
 .debug_line    0x00006068      0x415 build/default/production/_ext/1171490990/initialization.o
 .debug_line    0x0000647d      0x366 build/default/production/_ext/246609638/port.o
 .debug_line    0x000067e3      0x5d2 build/default/production/_ext/1665200909/heap_4.o
 .debug_line    0x00006db5      0x2e4 build/default/production/_ext/404212886/list.o
 .debug_line    0x00007099      0xf36 build/default/production/_ext/404212886/queue.o
 .debug_line    0x00007fcf      0x78f build/default/production/_ext/404212886/timers.o
 .debug_line    0x0000875e     0x195b build/default/production/_ext/404212886/FreeRTOS_tasks.o
 .debug_line    0x0000a0b9      0xf18 build/default/production/_ext/1360937237/main.o
 .debug_line    0x0000afd1      0x9b0 build/default/production/_ext/504274921/plib_sercom1_usart.o
 .debug_line    0x0000b981       0xa9 c:/program files/microchip/xc32/v4.21/bin/bin/../../lib/gcc/pic32c/8.3.1/../../../../pic32c/lib/thumb/v7e-m+fp/hard\libpic32c.a(data_init_wrapper.o)
 .debug_line    0x0000ba2a       0xf2 c:/program files/microchip/xc32/v4.21/bin/bin/../../lib/gcc/pic32c/8.3.1/../../../../pic32c/lib/thumb/v7e-m+fp/hard\libpic32c.a(data_init_0_1.o)
 .debug_line    0x0000bb1c      0x1d5 c:/program files/microchip/xc32/v4.21/bin/bin/../../lib/gcc/pic32c/8.3.1/../../../../pic32c/lib/thumb/v7e-m+fp/hard\libc-musl.a(__libc_start_main.o)
 .debug_line    0x0000bcf1       0xbc c:/program files/microchip/xc32/v4.21/bin/bin/../../lib/gcc/pic32c/8.3.1/../../../../pic32c/lib/thumb/v7e-m+fp/hard\libc-musl.a(libc.o)
 .debug_line    0x0000bdad      0x1cb c:/program files/microchip/xc32/v4.21/bin/bin/../../lib/gcc/pic32c/8.3.1/../../../../pic32c/lib/thumb/v7e-m+fp/hard\libc-musl.a(__sio_printf_dfoux.o)
 .debug_line    0x0000bf78      0x20d c:/program files/microchip/xc32/v4.21/bin/bin/../../lib/gcc/pic32c/8.3.1/../../../../pic32c/lib/thumb/v7e-m+fp/hard\libc-musl.a(__fmt_d.o)
 .debug_line    0x0000c185      0x683 c:/program files/microchip/xc32/v4.21/bin/bin/../../lib/gcc/pic32c/8.3.1/../../../../pic32c/lib/thumb/v7e-m+fp/hard\libc-musl.a(__fmt_fp.o)
 .debug_line    0x0000c808      0x1b7 c:/program files/microchip/xc32/v4.21/bin/bin/../../lib/gcc/pic32c/8.3.1/../../../../pic32c/lib/thumb/v7e-m+fp/hard\libc-musl.a(__fmt_o.o)
 .debug_line    0x0000c9bf      0x200 c:/program files/microchip/xc32/v4.21/bin/bin/../../lib/gcc/pic32c/8.3.1/../../../../pic32c/lib/thumb/v7e-m+fp/hard\libc-musl.a(__fmt_s.o)
 .debug_line    0x0000cbbf      0x241 c:/program files/microchip/xc32/v4.21/bin/bin/../../lib/gcc/pic32c/8.3.1/../../../../pic32c/lib/thumb/v7e-m+fp/hard\libc-musl.a(__fmt_u.o)
 .debug_line    0x0000ce00      0x2e2 c:/program files/microchip/xc32/v4.21/bin/bin/../../lib/gcc/pic32c/8.3.1/../../../../pic32c/lib/thumb/v7e-m+fp/hard\libc-musl.a(__fmt_x.o)
 .debug_line    0x0000d0e2      0x173 c:/program files/microchip/xc32/v4.21/bin/bin/../../lib/gcc/pic32c/8.3.1/../../../../pic32c/lib/thumb/v7e-m+fp/hard\libc-musl.a(__pop_float.o)
 .debug_line    0x0000d255      0x20e c:/program files/microchip/xc32/v4.21/bin/bin/../../lib/gcc/pic32c/8.3.1/../../../../pic32c/lib/thumb/v7e-m+fp/hard\libc-musl.a(__pop_int.o)
 .debug_line    0x0000d463      0x1ee c:/program files/microchip/xc32/v4.21/bin/bin/../../lib/gcc/pic32c/8.3.1/../../../../pic32c/lib/thumb/v7e-m+fp/hard\libc-musl.a(__pop_ptr.o)
 .debug_line    0x0000d651      0x69e c:/program files/microchip/xc32/v4.21/bin/bin/../../lib/gcc/pic32c/8.3.1/../../../../pic32c/lib/thumb/v7e-m+fp/hard\libc-musl.a(__printf_core.o)
 .debug_line    0x0000dcef      0x1da c:/program files/microchip/xc32/v4.21/bin/bin/../../lib/gcc/pic32c/8.3.1/../../../../pic32c/lib/thumb/v7e-m+fp/hard\libc-musl.a(stdin.o)
 .debug_line    0x0000dec9      0x18f c:/program files/microchip/xc32/v4.21/bin/bin/../../lib/gcc/pic32c/8.3.1/../../../../pic32c/lib/thumb/v7e-m+fp/hard\libc-musl.a(stdout.o)
 .debug_line    0x0000e058      0x1dc c:/program files/microchip/xc32/v4.21/bin/bin/../../lib/gcc/pic32c/8.3.1/../../../../pic32c/lib/thumb/v7e-m+fp/hard\libc-musl.a(puts.o)
 .debug_line    0x0000e234      0x139 c:/program files/microchip/xc32/v4.21/bin/bin/../../lib/gcc/pic32c/8.3.1/../../../../pic32c/lib/thumb/v7e-m+fp/hard\libc-musl.a(setbuf.o)
 .debug_line    0x0000e36d      0x175 c:/program files/microchip/xc32/v4.21/bin/bin/../../lib/gcc/pic32c/8.3.1/../../../../pic32c/lib/thumb/v7e-m+fp/hard\libc-musl.a(atoi.o)
 .debug_line    0x0000e4e2       0xf2 c:/program files/microchip/xc32/v4.21/bin/bin/../../lib/gcc/pic32c/8.3.1/../../../../pic32c/lib/thumb/v7e-m+fp/hard\libc-musl.a(memcpy.o)
 .debug_line    0x0000e5d4       0xe9 c:/program files/microchip/xc32/v4.21/bin/bin/../../lib/gcc/pic32c/8.3.1/../../../../pic32c/lib/thumb/v7e-m+fp/hard\libc-musl.a(memset.o)
 .debug_line    0x0000e6bd       0xe5 c:/program files/microchip/xc32/v4.21/bin/bin/../../lib/gcc/pic32c/8.3.1/../../../../pic32c/lib/thumb/v7e-m+fp/hard\libc-musl.a(strlen.o)
 .debug_line    0x0000e7a2       0xb4 c:/program files/microchip/xc32/v4.21/bin/bin/../../lib/gcc/pic32c/8.3.1/../../../../pic32c/lib/thumb/v7e-m+fp/hard\libc-musl.a(strcpy.o)
 .debug_line    0x0000e856      0x165 c:/program files/microchip/xc32/v4.21/bin/bin/../../lib/gcc/pic32c/8.3.1/../../../../pic32c/lib/thumb/v7e-m+fp/hard\libc-musl.a(tolower.o)
 .debug_line    0x0000e9bb      0x165 c:/program files/microchip/xc32/v4.21/bin/bin/../../lib/gcc/pic32c/8.3.1/../../../../pic32c/lib/thumb/v7e-m+fp/hard\libc-musl.a(toupper.o)
 .debug_line    0x0000eb20      0x109 c:/program files/microchip/xc32/v4.21/bin/bin/../../lib/gcc/pic32c/8.3.1/../../../../pic32c/lib/thumb/v7e-m+fp/hard\libc-musl.a(__environ.o)
 .debug_line    0x0000ec29       0xa1 c:/program files/microchip/xc32/v4.21/bin/bin/../../lib/gcc/pic32c/8.3.1/../../../../pic32c/lib/thumb/v7e-m+fp/hard\libc-musl.a(__errno_location.o)
 .debug_line    0x0000ecca      0x176 c:/program files/microchip/xc32/v4.21/bin/bin/../../lib/gcc/pic32c/8.3.1/../../../../pic32c/lib/thumb/v7e-m+fp/hard\libc-musl.a(__int_vfprintf.o)
 .debug_line    0x0000ee40      0x24a c:/program files/microchip/xc32/v4.21/bin/bin/../../lib/gcc/pic32c/8.3.1/../../../../pic32c/lib/thumb/v7e-m+fp/hard\libc-musl.a(fputs.o)
 .debug_line    0x0000f08a      0x24a c:/program files/microchip/xc32/v4.21/bin/bin/../../lib/gcc/pic32c/8.3.1/../../../../pic32c/lib/thumb/v7e-m+fp/hard\libc-musl.a(__stdio_read.o)
 .debug_line    0x0000f2d4      0x1f4 c:/program files/microchip/xc32/v4.21/bin/bin/../../lib/gcc/pic32c/8.3.1/../../../../pic32c/lib/thumb/v7e-m+fp/hard\libc-musl.a(__towrite_rw.o)
 .debug_line    0x0000f4c8      0x202 c:/program files/microchip/xc32/v4.21/bin/bin/../../lib/gcc/pic32c/8.3.1/../../../../pic32c/lib/thumb/v7e-m+fp/hard\libc-musl.a(fwrite.o)
 .debug_line    0x0000f6ca      0x1ac c:/program files/microchip/xc32/v4.21/bin/bin/../../lib/gcc/pic32c/8.3.1/../../../../pic32c/lib/thumb/v7e-m+fp/hard\libc-musl.a(putc.o)
 .debug_line    0x0000f876      0x22a c:/program files/microchip/xc32/v4.21/bin/bin/../../lib/gcc/pic32c/8.3.1/../../../../pic32c/lib/thumb/v7e-m+fp/hard\libc-musl.a(setvbuf.o)
 .debug_line    0x0000faa0       0xc8 c:/program files/microchip/xc32/v4.21/bin/bin/../../lib/gcc/pic32c/8.3.1/../../../../pic32c/lib/thumb/v7e-m+fp/hard\libc-musl.a(stpcpy.o)
 .debug_line    0x0000fb68      0x165 c:/program files/microchip/xc32/v4.21/bin/bin/../../lib/gcc/pic32c/8.3.1/../../../../pic32c/lib/thumb/v7e-m+fp/hard\libc-musl.a(readv.o)
 .debug_line    0x0000fccd      0xac5 c:/program files/microchip/xc32/v4.21/bin/bin/../../lib/gcc/pic32c/8.3.1/../../../../pic32c/lib/thumb/v7e-m+fp/hard\libc-musl.a(malloc.o)
 .debug_line    0x00010792       0xf6 c:/program files/microchip/xc32/v4.21/bin/bin/../../lib/gcc/pic32c/8.3.1/../../../../pic32c/lib/thumb/v7e-m+fp/hard\libc-musl.a(expand_heap.o)
 .debug_line    0x00010888       0xcf c:/program files/microchip/xc32/v4.21/bin/bin/../../lib/gcc/pic32c/8.3.1/../../../../pic32c/lib/thumb/v7e-m+fp/hard\libc-musl.a(__init_stdio.o)
 .debug_line    0x00010957      0x234 c:/program files/microchip/xc32/v4.21/bin/bin/../../lib/gcc/pic32c/8.3.1/../../../../pic32c/lib/thumb/v7e-m+fp/hard\libc-musl.a(__out.o)
 .debug_line    0x00010b8b      0x174 c:/program files/microchip/xc32/v4.21/bin/bin/../../lib/gcc/pic32c/8.3.1/../../../../pic32c/lib/thumb/v7e-m+fp/hard\libc-musl.a(__putc.o)
 .debug_line    0x00010cff      0x1e5 c:/program files/microchip/xc32/v4.21/bin/bin/../../lib/gcc/pic32c/8.3.1/../../../../pic32c/lib/thumb/v7e-m+fp/hard\libc-musl.a(__stderr.o)
 .debug_line    0x00010ee4      0x2f8 c:/program files/microchip/xc32/v4.21/bin/bin/../../lib/gcc/pic32c/8.3.1/../../../../pic32c/lib/thumb/v7e-m+fp/hard\libc-musl.a(__stdio_close.o)
 .debug_line    0x000111dc      0x333 c:/program files/microchip/xc32/v4.21/bin/bin/../../lib/gcc/pic32c/8.3.1/../../../../pic32c/lib/thumb/v7e-m+fp/hard\libc-musl.a(__stdio_write.o)
 .debug_line    0x0001150f      0x1e5 c:/program files/microchip/xc32/v4.21/bin/bin/../../lib/gcc/pic32c/8.3.1/../../../../pic32c/lib/thumb/v7e-m+fp/hard\libc-musl.a(__stdout.o)
 .debug_line    0x000116f4      0x18b c:/program files/microchip/xc32/v4.21/bin/bin/../../lib/gcc/pic32c/8.3.1/../../../../pic32c/lib/thumb/v7e-m+fp/hard\libc-musl.a(__towrite.o)
 .debug_line    0x0001187f      0x166 c:/program files/microchip/xc32/v4.21/bin/bin/../../lib/gcc/pic32c/8.3.1/../../../../pic32c/lib/thumb/v7e-m+fp/hard\libc-musl.a(writev.o)
 .debug_line    0x000119e5      0x209 c:/program files/microchip/xc32/v4.21/bin/bin/../../lib/gcc/pic32c/8.3.1/../../../../pic32c/lib/thumb/v7e-m+fp/hard\libc-musl.a(__overflow.o)
 .debug_line    0x00011bee      0x1f3 c:/program files/microchip/xc32/v4.21/bin/bin/../../lib/gcc/pic32c/8.3.1/../../../../pic32c/lib/thumb/v7e-m+fp/hard\libc-musl.a(__fwrite.o)
 .debug_line    0x00011de1       0x98 c:/program files/microchip/xc32/v4.21/bin/bin/../../lib/gcc/pic32c/8.3.1/thumb/v7e-m+fp/hard\libgcc.a(_aeabi_uldivmod.o)
 .debug_line    0x00011e79      0x367 c:/program files/microchip/xc32/v4.21/bin/bin/../../lib/gcc/pic32c/8.3.1/thumb/v7e-m+fp/hard\libgcc.a(_udivmoddi4.o)
 .debug_line    0x000121e0       0x98 c:/program files/microchip/xc32/v4.21/bin/bin/../../lib/gcc/pic32c/8.3.1/thumb/v7e-m+fp/hard\libgcc.a(_dvmd_tls.o)
 .debug_line    0x00012278       0x9d c:/program files/microchip/xc32/v4.21/bin/bin/../../lib/gcc/pic32c/8.3.1/../../../../pic32c/lib/thumb/v7e-m+fp/hard\libpic32c.a(close.o)
 .debug_line    0x00012315       0x9d c:/program files/microchip/xc32/v4.21/bin/bin/../../lib/gcc/pic32c/8.3.1/../../../../pic32c/lib/thumb/v7e-m+fp/hard\libpic32c.a(lseek.o)
 .debug_line    0x000123b2       0xbd c:/program files/microchip/xc32/v4.21/bin/bin/../../lib/gcc/pic32c/8.3.1/../../../../pic32c/lib/thumb/v7e-m+fp/hard\libpic32c.a(sbrk.o)

.debug_str      0x00000000     0x1ccb
 .debug_str     0x00000000       0x19 build/default/production/_ext/60163342/plib_adc1.o
 .debug_str     0x00000019       0x19 build/default/production/_ext/60163342/plib_adc0.o
 .debug_str     0x00000032       0x1e build/default/production/_ext/1984496892/plib_clock.o
 .debug_str     0x00000050       0x11 build/default/production/_ext/60167341/plib_eic.o
 .debug_str     0x00000061        0x0 build/default/production/_ext/1986646378/plib_evsys.o
 .debug_str     0x00000061        0xa build/default/production/_ext/1865468468/plib_nvic.o
 .debug_str     0x0000006b       0x20 build/default/production/_ext/1593096446/plib_nvmctrl.o
 .debug_str     0x0000008b        0xb build/default/production/_ext/1865521619/plib_port.o
 .debug_str     0x00000096      0x18a build/default/production/_ext/508257091/plib_sercom3_i2c_master.o
 .debug_str     0x00000220      0x160 build/default/production/_ext/504274921/plib_sercom7_usart.o
 .debug_str     0x00000380      0x160 build/default/production/_ext/504274921/plib_sercom6_usart.o
 .debug_str     0x000004e0      0x160 build/default/production/_ext/504274921/plib_sercom2_usart.o
 .debug_str     0x00000640      0x135 build/default/production/_ext/504274921/plib_sercom5_usart.o
 .debug_str     0x00000775       0xbf build/default/production/_ext/829342655/plib_tc0.o
 .debug_str     0x00000834       0xbf build/default/production/_ext/829342655/plib_tc1.o
 .debug_str     0x000008f3       0xbf build/default/production/_ext/829342655/plib_tc5.o
 .debug_str     0x000009b2        0x0 build/default/production/_ext/60181570/plib_tcc4.o
 .debug_str     0x000009b2       0x27 build/default/production/_ext/163028504/xc32_monitor.o
 .debug_str     0x000009d9       0x25 build/default/production/_ext/1171490990/freertos_hooks.o
 .debug_str     0x000009fe       0x2f build/default/production/_ext/1171490990/startup_xc32.o
 .debug_str     0x00000a2d        0x0 build/default/production/_ext/1171490990/interrupts.o
 .debug_str     0x00000a2d        0x0 build/default/production/_ext/1171490990/exceptions.o
 .debug_str     0x00000a2d      0x16d build/default/production/_ext/1171490990/initialization.o
 .debug_str     0x00000b9a       0x26 build/default/production/_ext/246609638/port.o
 .debug_str     0x00000bc0       0xb8 build/default/production/_ext/1665200909/heap_4.o
 .debug_str     0x00000c78       0x2b build/default/production/_ext/404212886/list.o
 .debug_str     0x00000ca3      0x2c6 build/default/production/_ext/404212886/queue.o
 .debug_str     0x00000f69      0x202 build/default/production/_ext/404212886/timers.o
 .debug_str     0x0000116b      0x2bf build/default/production/_ext/404212886/FreeRTOS_tasks.o
 .debug_str     0x0000142a      0x3ca build/default/production/_ext/1360937237/main.o
 .debug_str     0x000017f4      0x160 build/default/production/_ext/504274921/plib_sercom1_usart.o
 .debug_str     0x00001954        0x0 c:/program files/microchip/xc32/v4.21/bin/bin/../../lib/gcc/pic32c/8.3.1/../../../../pic32c/lib/thumb/v7e-m+fp/hard\libpic32c.a(data_init_wrapper.o)
 .debug_str     0x00001954        0x0 c:/program files/microchip/xc32/v4.21/bin/bin/../../lib/gcc/pic32c/8.3.1/../../../../pic32c/lib/thumb/v7e-m+fp/hard\libpic32c.a(data_init_0_1.o)
 .debug_str     0x00001954        0x0 c:/program files/microchip/xc32/v4.21/bin/bin/../../lib/gcc/pic32c/8.3.1/../../../../pic32c/lib/thumb/v7e-m+fp/hard\libc-musl.a(__libc_start_main.o)
 .debug_str     0x00001954        0x0 c:/program files/microchip/xc32/v4.21/bin/bin/../../lib/gcc/pic32c/8.3.1/../../../../pic32c/lib/thumb/v7e-m+fp/hard\libc-musl.a(libc.o)
 .debug_str     0x00001954       0x9a c:/program files/microchip/xc32/v4.21/bin/bin/../../lib/gcc/pic32c/8.3.1/../../../../pic32c/lib/thumb/v7e-m+fp/hard\libc-musl.a(__sio_printf_dfoux.o)
 .debug_str     0x000019ee        0x0 c:/program files/microchip/xc32/v4.21/bin/bin/../../lib/gcc/pic32c/8.3.1/../../../../pic32c/lib/thumb/v7e-m+fp/hard\libc-musl.a(__fmt_d.o)
 .debug_str     0x000019ee        0x0 c:/program files/microchip/xc32/v4.21/bin/bin/../../lib/gcc/pic32c/8.3.1/../../../../pic32c/lib/thumb/v7e-m+fp/hard\libc-musl.a(__fmt_fp.o)
 .debug_str     0x000019ee        0x0 c:/program files/microchip/xc32/v4.21/bin/bin/../../lib/gcc/pic32c/8.3.1/../../../../pic32c/lib/thumb/v7e-m+fp/hard\libc-musl.a(__fmt_o.o)
 .debug_str     0x000019ee        0x0 c:/program files/microchip/xc32/v4.21/bin/bin/../../lib/gcc/pic32c/8.3.1/../../../../pic32c/lib/thumb/v7e-m+fp/hard\libc-musl.a(__fmt_s.o)
 .debug_str     0x000019ee        0x6 c:/program files/microchip/xc32/v4.21/bin/bin/../../lib/gcc/pic32c/8.3.1/../../../../pic32c/lib/thumb/v7e-m+fp/hard\libc-musl.a(__fmt_u.o)
 .debug_str     0x000019f4        0x0 c:/program files/microchip/xc32/v4.21/bin/bin/../../lib/gcc/pic32c/8.3.1/../../../../pic32c/lib/thumb/v7e-m+fp/hard\libc-musl.a(__fmt_x.o)
 .debug_str     0x000019f4        0x0 c:/program files/microchip/xc32/v4.21/bin/bin/../../lib/gcc/pic32c/8.3.1/../../../../pic32c/lib/thumb/v7e-m+fp/hard\libc-musl.a(__pop_float.o)
 .debug_str     0x000019f4        0x0 c:/program files/microchip/xc32/v4.21/bin/bin/../../lib/gcc/pic32c/8.3.1/../../../../pic32c/lib/thumb/v7e-m+fp/hard\libc-musl.a(__pop_int.o)
 .debug_str     0x000019f4        0x0 c:/program files/microchip/xc32/v4.21/bin/bin/../../lib/gcc/pic32c/8.3.1/../../../../pic32c/lib/thumb/v7e-m+fp/hard\libc-musl.a(__pop_ptr.o)
 .debug_str     0x000019f4       0x20 c:/program files/microchip/xc32/v4.21/bin/bin/../../lib/gcc/pic32c/8.3.1/../../../../pic32c/lib/thumb/v7e-m+fp/hard\libc-musl.a(__printf_core.o)
 .debug_str     0x00001a14        0xf c:/program files/microchip/xc32/v4.21/bin/bin/../../lib/gcc/pic32c/8.3.1/../../../../pic32c/lib/thumb/v7e-m+fp/hard\libc-musl.a(stdin.o)
 .debug_str     0x00001a23       0x11 c:/program files/microchip/xc32/v4.21/bin/bin/../../lib/gcc/pic32c/8.3.1/../../../../pic32c/lib/thumb/v7e-m+fp/hard\libc-musl.a(stdout.o)
 .debug_str     0x00001a34        0xe c:/program files/microchip/xc32/v4.21/bin/bin/../../lib/gcc/pic32c/8.3.1/../../../../pic32c/lib/thumb/v7e-m+fp/hard\libc-musl.a(puts.o)
 .debug_str     0x00001a42        0x0 c:/program files/microchip/xc32/v4.21/bin/bin/../../lib/gcc/pic32c/8.3.1/../../../../pic32c/lib/thumb/v7e-m+fp/hard\libc-musl.a(setbuf.o)
 .debug_str     0x00001a42        0x0 c:/program files/microchip/xc32/v4.21/bin/bin/../../lib/gcc/pic32c/8.3.1/../../../../pic32c/lib/thumb/v7e-m+fp/hard\libc-musl.a(atoi.o)
 .debug_str     0x00001a42        0x0 c:/program files/microchip/xc32/v4.21/bin/bin/../../lib/gcc/pic32c/8.3.1/../../../../pic32c/lib/thumb/v7e-m+fp/hard\libc-musl.a(memcpy.o)
 .debug_str     0x00001a42        0x0 c:/program files/microchip/xc32/v4.21/bin/bin/../../lib/gcc/pic32c/8.3.1/../../../../pic32c/lib/thumb/v7e-m+fp/hard\libc-musl.a(memset.o)
 .debug_str     0x00001a42        0x0 c:/program files/microchip/xc32/v4.21/bin/bin/../../lib/gcc/pic32c/8.3.1/../../../../pic32c/lib/thumb/v7e-m+fp/hard\libc-musl.a(strlen.o)
 .debug_str     0x00001a42        0x9 c:/program files/microchip/xc32/v4.21/bin/bin/../../lib/gcc/pic32c/8.3.1/../../../../pic32c/lib/thumb/v7e-m+fp/hard\libc-musl.a(strcpy.o)
 .debug_str     0x00001a4b        0x0 c:/program files/microchip/xc32/v4.21/bin/bin/../../lib/gcc/pic32c/8.3.1/../../../../pic32c/lib/thumb/v7e-m+fp/hard\libc-musl.a(tolower.o)
 .debug_str     0x00001a4b        0x0 c:/program files/microchip/xc32/v4.21/bin/bin/../../lib/gcc/pic32c/8.3.1/../../../../pic32c/lib/thumb/v7e-m+fp/hard\libc-musl.a(toupper.o)
 .debug_str     0x00001a4b        0x0 c:/program files/microchip/xc32/v4.21/bin/bin/../../lib/gcc/pic32c/8.3.1/../../../../pic32c/lib/thumb/v7e-m+fp/hard\libc-musl.a(__environ.o)
 .debug_str     0x00001a4b        0x0 c:/program files/microchip/xc32/v4.21/bin/bin/../../lib/gcc/pic32c/8.3.1/../../../../pic32c/lib/thumb/v7e-m+fp/hard\libc-musl.a(__errno_location.o)
 .debug_str     0x00001a4b        0xe c:/program files/microchip/xc32/v4.21/bin/bin/../../lib/gcc/pic32c/8.3.1/../../../../pic32c/lib/thumb/v7e-m+fp/hard\libc-musl.a(__int_vfprintf.o)
 .debug_str     0x00001a59        0x0 c:/program files/microchip/xc32/v4.21/bin/bin/../../lib/gcc/pic32c/8.3.1/../../../../pic32c/lib/thumb/v7e-m+fp/hard\libc-musl.a(fputs.o)
 .debug_str     0x00001a59        0x0 c:/program files/microchip/xc32/v4.21/bin/bin/../../lib/gcc/pic32c/8.3.1/../../../../pic32c/lib/thumb/v7e-m+fp/hard\libc-musl.a(__stdio_read.o)
 .debug_str     0x00001a59        0x0 c:/program files/microchip/xc32/v4.21/bin/bin/../../lib/gcc/pic32c/8.3.1/../../../../pic32c/lib/thumb/v7e-m+fp/hard\libc-musl.a(__towrite_rw.o)
 .debug_str     0x00001a59        0x0 c:/program files/microchip/xc32/v4.21/bin/bin/../../lib/gcc/pic32c/8.3.1/../../../../pic32c/lib/thumb/v7e-m+fp/hard\libc-musl.a(fwrite.o)
 .debug_str     0x00001a59       0x16 c:/program files/microchip/xc32/v4.21/bin/bin/../../lib/gcc/pic32c/8.3.1/../../../../pic32c/lib/thumb/v7e-m+fp/hard\libc-musl.a(putc.o)
 .debug_str     0x00001a6f       0x10 c:/program files/microchip/xc32/v4.21/bin/bin/../../lib/gcc/pic32c/8.3.1/../../../../pic32c/lib/thumb/v7e-m+fp/hard\libc-musl.a(setvbuf.o)
 .debug_str     0x00001a7f        0x0 c:/program files/microchip/xc32/v4.21/bin/bin/../../lib/gcc/pic32c/8.3.1/../../../../pic32c/lib/thumb/v7e-m+fp/hard\libc-musl.a(stpcpy.o)
 .debug_str     0x00001a7f        0x0 c:/program files/microchip/xc32/v4.21/bin/bin/../../lib/gcc/pic32c/8.3.1/../../../../pic32c/lib/thumb/v7e-m+fp/hard\libc-musl.a(readv.o)
 .debug_str     0x00001a7f       0x13 c:/program files/microchip/xc32/v4.21/bin/bin/../../lib/gcc/pic32c/8.3.1/../../../../pic32c/lib/thumb/v7e-m+fp/hard\libc-musl.a(malloc.o)
 .debug_str     0x00001a92        0x0 c:/program files/microchip/xc32/v4.21/bin/bin/../../lib/gcc/pic32c/8.3.1/../../../../pic32c/lib/thumb/v7e-m+fp/hard\libc-musl.a(expand_heap.o)
 .debug_str     0x00001a92        0x0 c:/program files/microchip/xc32/v4.21/bin/bin/../../lib/gcc/pic32c/8.3.1/../../../../pic32c/lib/thumb/v7e-m+fp/hard\libc-musl.a(__init_stdio.o)
 .debug_str     0x00001a92        0x0 c:/program files/microchip/xc32/v4.21/bin/bin/../../lib/gcc/pic32c/8.3.1/../../../../pic32c/lib/thumb/v7e-m+fp/hard\libc-musl.a(__out.o)
 .debug_str     0x00001a92       0x1d c:/program files/microchip/xc32/v4.21/bin/bin/../../lib/gcc/pic32c/8.3.1/../../../../pic32c/lib/thumb/v7e-m+fp/hard\libc-musl.a(__putc.o)
 .debug_str     0x00001aaf       0x11 c:/program files/microchip/xc32/v4.21/bin/bin/../../lib/gcc/pic32c/8.3.1/../../../../pic32c/lib/thumb/v7e-m+fp/hard\libc-musl.a(__stderr.o)
 .debug_str     0x00001ac0        0x0 c:/program files/microchip/xc32/v4.21/bin/bin/../../lib/gcc/pic32c/8.3.1/../../../../pic32c/lib/thumb/v7e-m+fp/hard\libc-musl.a(__stdio_close.o)
 .debug_str     0x00001ac0        0xa c:/program files/microchip/xc32/v4.21/bin/bin/../../lib/gcc/pic32c/8.3.1/../../../../pic32c/lib/thumb/v7e-m+fp/hard\libc-musl.a(__stdio_write.o)
 .debug_str     0x00001aca       0x11 c:/program files/microchip/xc32/v4.21/bin/bin/../../lib/gcc/pic32c/8.3.1/../../../../pic32c/lib/thumb/v7e-m+fp/hard\libc-musl.a(__stdout.o)
 .debug_str     0x00001adb        0x0 c:/program files/microchip/xc32/v4.21/bin/bin/../../lib/gcc/pic32c/8.3.1/../../../../pic32c/lib/thumb/v7e-m+fp/hard\libc-musl.a(__towrite.o)
 .debug_str     0x00001adb        0x0 c:/program files/microchip/xc32/v4.21/bin/bin/../../lib/gcc/pic32c/8.3.1/../../../../pic32c/lib/thumb/v7e-m+fp/hard\libc-musl.a(writev.o)
 .debug_str     0x00001adb        0xa c:/program files/microchip/xc32/v4.21/bin/bin/../../lib/gcc/pic32c/8.3.1/../../../../pic32c/lib/thumb/v7e-m+fp/hard\libc-musl.a(__overflow.o)
 .debug_str     0x00001ae5       0x10 c:/program files/microchip/xc32/v4.21/bin/bin/../../lib/gcc/pic32c/8.3.1/../../../../pic32c/lib/thumb/v7e-m+fp/hard\libc-musl.a(__fwrite.o)
 .debug_str     0x00001af5       0xe9 c:/program files/microchip/xc32/v4.21/bin/bin/../../lib/gcc/pic32c/8.3.1/thumb/v7e-m+fp/hard\libgcc.a(_aeabi_uldivmod.o)
 .debug_str     0x00001bde        0x0 c:/program files/microchip/xc32/v4.21/bin/bin/../../lib/gcc/pic32c/8.3.1/thumb/v7e-m+fp/hard\libgcc.a(_udivmoddi4.o)
 .debug_str     0x00001bde       0xed c:/program files/microchip/xc32/v4.21/bin/bin/../../lib/gcc/pic32c/8.3.1/thumb/v7e-m+fp/hard\libgcc.a(_dvmd_tls.o)
 .debug_str     0x00001ccb        0x0 c:/program files/microchip/xc32/v4.21/bin/bin/../../lib/gcc/pic32c/8.3.1/../../../../pic32c/lib/thumb/v7e-m+fp/hard\libpic32c.a(close.o)
 .debug_str     0x00001ccb        0x0 c:/program files/microchip/xc32/v4.21/bin/bin/../../lib/gcc/pic32c/8.3.1/../../../../pic32c/lib/thumb/v7e-m+fp/hard\libpic32c.a(lseek.o)
 .debug_str     0x00001ccb        0x0 c:/program files/microchip/xc32/v4.21/bin/bin/../../lib/gcc/pic32c/8.3.1/../../../../pic32c/lib/thumb/v7e-m+fp/hard\libpic32c.a(sbrk.o)

.debug_frame    0x00000000     0x30e8
 .debug_frame   0x00000000       0xe0 build/default/production/_ext/60163342/plib_adc1.o
 .debug_frame   0x000000e0       0xe0 build/default/production/_ext/60163342/plib_adc0.o
 .debug_frame   0x000001c0       0x20 build/default/production/_ext/1984496892/plib_clock.o
 .debug_frame   0x000001e0      0x138 build/default/production/_ext/60167341/plib_eic.o
 .debug_frame   0x00000318       0x20 build/default/production/_ext/1986646378/plib_evsys.o
 .debug_frame   0x00000338       0x60 build/default/production/_ext/1865468468/plib_nvic.o
 .debug_frame   0x00000398      0x1dc build/default/production/_ext/1593096446/plib_nvmctrl.o
 .debug_frame   0x00000574       0xdc build/default/production/_ext/1865521619/plib_port.o
 .debug_frame   0x00000650       0xe8 build/default/production/_ext/508257091/plib_sercom3_i2c_master.o
 .debug_frame   0x00000738      0x1f4 build/default/production/_ext/504274921/plib_sercom7_usart.o
 .debug_frame   0x0000092c      0x1f4 build/default/production/_ext/504274921/plib_sercom6_usart.o
 .debug_frame   0x00000b20      0x1f4 build/default/production/_ext/504274921/plib_sercom2_usart.o
 .debug_frame   0x00000d14      0x17c build/default/production/_ext/504274921/plib_sercom5_usart.o
 .debug_frame   0x00000e90       0xc0 build/default/production/_ext/829342655/plib_tc0.o
 .debug_frame   0x00000f50       0xc0 build/default/production/_ext/829342655/plib_tc1.o
 .debug_frame   0x00001010       0xc0 build/default/production/_ext/829342655/plib_tc5.o
 .debug_frame   0x000010d0       0xc0 build/default/production/_ext/60181570/plib_tcc4.o
 .debug_frame   0x00001190       0x48 build/default/production/_ext/163028504/xc32_monitor.o
 .debug_frame   0x000011d8       0x6c build/default/production/_ext/1171490990/freertos_hooks.o
 .debug_frame   0x00001244       0x38 build/default/production/_ext/1171490990/startup_xc32.o
 .debug_frame   0x0000127c       0x20 build/default/production/_ext/1171490990/interrupts.o
 .debug_frame   0x0000129c       0x70 build/default/production/_ext/1171490990/exceptions.o
 .debug_frame   0x0000130c       0x28 build/default/production/_ext/1171490990/initialization.o
 .debug_frame   0x00001334       0xe8 build/default/production/_ext/246609638/port.o
 .debug_frame   0x0000141c       0xd0 build/default/production/_ext/1665200909/heap_4.o
 .debug_frame   0x000014ec       0x6c build/default/production/_ext/404212886/list.o
 .debug_frame   0x00001558      0x2b8 build/default/production/_ext/404212886/queue.o
 .debug_frame   0x00001810      0x1fc build/default/production/_ext/404212886/timers.o
 .debug_frame   0x00001a0c      0x4cc build/default/production/_ext/404212886/FreeRTOS_tasks.o
 .debug_frame   0x00001ed8      0x3c4 build/default/production/_ext/1360937237/main.o
 .debug_frame   0x0000229c      0x1f4 build/default/production/_ext/504274921/plib_sercom1_usart.o
 .debug_frame   0x00002490       0x20 c:/program files/microchip/xc32/v4.21/bin/bin/../../lib/gcc/pic32c/8.3.1/../../../../pic32c/lib/thumb/v7e-m+fp/hard\libpic32c.a(data_init_wrapper.o)
 .debug_frame   0x000024b0       0x2c c:/program files/microchip/xc32/v4.21/bin/bin/../../lib/gcc/pic32c/8.3.1/../../../../pic32c/lib/thumb/v7e-m+fp/hard\libpic32c.a(data_init_0_1.o)
 .debug_frame   0x000024dc       0x3c c:/program files/microchip/xc32/v4.21/bin/bin/../../lib/gcc/pic32c/8.3.1/../../../../pic32c/lib/thumb/v7e-m+fp/hard\libc-musl.a(__libc_start_main.o)
 .debug_frame   0x00002518       0x5c c:/program files/microchip/xc32/v4.21/bin/bin/../../lib/gcc/pic32c/8.3.1/../../../../pic32c/lib/thumb/v7e-m+fp/hard\libc-musl.a(__sio_printf_dfoux.o)
 .debug_frame   0x00002574       0x3c c:/program files/microchip/xc32/v4.21/bin/bin/../../lib/gcc/pic32c/8.3.1/../../../../pic32c/lib/thumb/v7e-m+fp/hard\libc-musl.a(__fmt_d.o)
 .debug_frame   0x000025b0       0x50 c:/program files/microchip/xc32/v4.21/bin/bin/../../lib/gcc/pic32c/8.3.1/../../../../pic32c/lib/thumb/v7e-m+fp/hard\libc-musl.a(__fmt_fp.o)
 .debug_frame   0x00002600       0x34 c:/program files/microchip/xc32/v4.21/bin/bin/../../lib/gcc/pic32c/8.3.1/../../../../pic32c/lib/thumb/v7e-m+fp/hard\libc-musl.a(__fmt_o.o)
 .debug_frame   0x00002634       0x34 c:/program files/microchip/xc32/v4.21/bin/bin/../../lib/gcc/pic32c/8.3.1/../../../../pic32c/lib/thumb/v7e-m+fp/hard\libc-musl.a(__fmt_s.o)
 .debug_frame   0x00002668       0x5c c:/program files/microchip/xc32/v4.21/bin/bin/../../lib/gcc/pic32c/8.3.1/../../../../pic32c/lib/thumb/v7e-m+fp/hard\libc-musl.a(__fmt_u.o)
 .debug_frame   0x000026c4       0x40 c:/program files/microchip/xc32/v4.21/bin/bin/../../lib/gcc/pic32c/8.3.1/../../../../pic32c/lib/thumb/v7e-m+fp/hard\libc-musl.a(__fmt_x.o)
 .debug_frame   0x00002704       0x20 c:/program files/microchip/xc32/v4.21/bin/bin/../../lib/gcc/pic32c/8.3.1/../../../../pic32c/lib/thumb/v7e-m+fp/hard\libc-musl.a(__pop_float.o)
 .debug_frame   0x00002724       0x28 c:/program files/microchip/xc32/v4.21/bin/bin/../../lib/gcc/pic32c/8.3.1/../../../../pic32c/lib/thumb/v7e-m+fp/hard\libc-musl.a(__pop_int.o)
 .debug_frame   0x0000274c       0x28 c:/program files/microchip/xc32/v4.21/bin/bin/../../lib/gcc/pic32c/8.3.1/../../../../pic32c/lib/thumb/v7e-m+fp/hard\libc-musl.a(__pop_ptr.o)
 .debug_frame   0x00002774       0xd8 c:/program files/microchip/xc32/v4.21/bin/bin/../../lib/gcc/pic32c/8.3.1/../../../../pic32c/lib/thumb/v7e-m+fp/hard\libc-musl.a(__printf_core.o)
 .debug_frame   0x0000284c       0x30 c:/program files/microchip/xc32/v4.21/bin/bin/../../lib/gcc/pic32c/8.3.1/../../../../pic32c/lib/thumb/v7e-m+fp/hard\libc-musl.a(stdin.o)
 .debug_frame   0x0000287c       0x48 c:/program files/microchip/xc32/v4.21/bin/bin/../../lib/gcc/pic32c/8.3.1/../../../../pic32c/lib/thumb/v7e-m+fp/hard\libc-musl.a(stdout.o)
 .debug_frame   0x000028c4       0x28 c:/program files/microchip/xc32/v4.21/bin/bin/../../lib/gcc/pic32c/8.3.1/../../../../pic32c/lib/thumb/v7e-m+fp/hard\libc-musl.a(puts.o)
 .debug_frame   0x000028ec       0x20 c:/program files/microchip/xc32/v4.21/bin/bin/../../lib/gcc/pic32c/8.3.1/../../../../pic32c/lib/thumb/v7e-m+fp/hard\libc-musl.a(setbuf.o)
 .debug_frame   0x0000290c       0x28 c:/program files/microchip/xc32/v4.21/bin/bin/../../lib/gcc/pic32c/8.3.1/../../../../pic32c/lib/thumb/v7e-m+fp/hard\libc-musl.a(atoi.o)
 .debug_frame   0x00002934       0x28 c:/program files/microchip/xc32/v4.21/bin/bin/../../lib/gcc/pic32c/8.3.1/../../../../pic32c/lib/thumb/v7e-m+fp/hard\libc-musl.a(memcpy.o)
 .debug_frame   0x0000295c       0x20 c:/program files/microchip/xc32/v4.21/bin/bin/../../lib/gcc/pic32c/8.3.1/../../../../pic32c/lib/thumb/v7e-m+fp/hard\libc-musl.a(memset.o)
 .debug_frame   0x0000297c       0x20 c:/program files/microchip/xc32/v4.21/bin/bin/../../lib/gcc/pic32c/8.3.1/../../../../pic32c/lib/thumb/v7e-m+fp/hard\libc-musl.a(strlen.o)
 .debug_frame   0x0000299c       0x28 c:/program files/microchip/xc32/v4.21/bin/bin/../../lib/gcc/pic32c/8.3.1/../../../../pic32c/lib/thumb/v7e-m+fp/hard\libc-musl.a(strcpy.o)
 .debug_frame   0x000029c4       0x30 c:/program files/microchip/xc32/v4.21/bin/bin/../../lib/gcc/pic32c/8.3.1/../../../../pic32c/lib/thumb/v7e-m+fp/hard\libc-musl.a(tolower.o)
 .debug_frame   0x000029f4       0x30 c:/program files/microchip/xc32/v4.21/bin/bin/../../lib/gcc/pic32c/8.3.1/../../../../pic32c/lib/thumb/v7e-m+fp/hard\libc-musl.a(toupper.o)
 .debug_frame   0x00002a24       0x2c c:/program files/microchip/xc32/v4.21/bin/bin/../../lib/gcc/pic32c/8.3.1/../../../../pic32c/lib/thumb/v7e-m+fp/hard\libc-musl.a(__int_vfprintf.o)
 .debug_frame   0x00002a50       0x2c c:/program files/microchip/xc32/v4.21/bin/bin/../../lib/gcc/pic32c/8.3.1/../../../../pic32c/lib/thumb/v7e-m+fp/hard\libc-musl.a(fputs.o)
 .debug_frame   0x00002a7c       0x30 c:/program files/microchip/xc32/v4.21/bin/bin/../../lib/gcc/pic32c/8.3.1/../../../../pic32c/lib/thumb/v7e-m+fp/hard\libc-musl.a(__stdio_read.o)
 .debug_frame   0x00002aac       0x20 c:/program files/microchip/xc32/v4.21/bin/bin/../../lib/gcc/pic32c/8.3.1/../../../../pic32c/lib/thumb/v7e-m+fp/hard\libc-musl.a(__towrite_rw.o)
 .debug_frame   0x00002acc       0x3c c:/program files/microchip/xc32/v4.21/bin/bin/../../lib/gcc/pic32c/8.3.1/../../../../pic32c/lib/thumb/v7e-m+fp/hard\libc-musl.a(fwrite.o)
 .debug_frame   0x00002b08       0x54 c:/program files/microchip/xc32/v4.21/bin/bin/../../lib/gcc/pic32c/8.3.1/../../../../pic32c/lib/thumb/v7e-m+fp/hard\libc-musl.a(putc.o)
 .debug_frame   0x00002b5c       0x3c c:/program files/microchip/xc32/v4.21/bin/bin/../../lib/gcc/pic32c/8.3.1/../../../../pic32c/lib/thumb/v7e-m+fp/hard\libc-musl.a(setvbuf.o)
 .debug_frame   0x00002b98       0x20 c:/program files/microchip/xc32/v4.21/bin/bin/../../lib/gcc/pic32c/8.3.1/../../../../pic32c/lib/thumb/v7e-m+fp/hard\libc-musl.a(stpcpy.o)
 .debug_frame   0x00002bb8       0x34 c:/program files/microchip/xc32/v4.21/bin/bin/../../lib/gcc/pic32c/8.3.1/../../../../pic32c/lib/thumb/v7e-m+fp/hard\libc-musl.a(readv.o)
 .debug_frame   0x00002bec      0x150 c:/program files/microchip/xc32/v4.21/bin/bin/../../lib/gcc/pic32c/8.3.1/../../../../pic32c/lib/thumb/v7e-m+fp/hard\libc-musl.a(malloc.o)
 .debug_frame   0x00002d3c       0x28 c:/program files/microchip/xc32/v4.21/bin/bin/../../lib/gcc/pic32c/8.3.1/../../../../pic32c/lib/thumb/v7e-m+fp/hard\libc-musl.a(expand_heap.o)
 .debug_frame   0x00002d64       0x38 c:/program files/microchip/xc32/v4.21/bin/bin/../../lib/gcc/pic32c/8.3.1/../../../../pic32c/lib/thumb/v7e-m+fp/hard\libc-musl.a(__init_stdio.o)
 .debug_frame   0x00002d9c       0x3c c:/program files/microchip/xc32/v4.21/bin/bin/../../lib/gcc/pic32c/8.3.1/../../../../pic32c/lib/thumb/v7e-m+fp/hard\libc-musl.a(__out.o)
 .debug_frame   0x00002dd8       0x38 c:/program files/microchip/xc32/v4.21/bin/bin/../../lib/gcc/pic32c/8.3.1/../../../../pic32c/lib/thumb/v7e-m+fp/hard\libc-musl.a(__putc.o)
 .debug_frame   0x00002e10       0x40 c:/program files/microchip/xc32/v4.21/bin/bin/../../lib/gcc/pic32c/8.3.1/../../../../pic32c/lib/thumb/v7e-m+fp/hard\libc-musl.a(__stderr.o)
 .debug_frame   0x00002e50       0x60 c:/program files/microchip/xc32/v4.21/bin/bin/../../lib/gcc/pic32c/8.3.1/../../../../pic32c/lib/thumb/v7e-m+fp/hard\libc-musl.a(__stdio_close.o)
 .debug_frame   0x00002eb0       0x58 c:/program files/microchip/xc32/v4.21/bin/bin/../../lib/gcc/pic32c/8.3.1/../../../../pic32c/lib/thumb/v7e-m+fp/hard\libc-musl.a(__stdio_write.o)
 .debug_frame   0x00002f08       0x40 c:/program files/microchip/xc32/v4.21/bin/bin/../../lib/gcc/pic32c/8.3.1/../../../../pic32c/lib/thumb/v7e-m+fp/hard\libc-musl.a(__stdout.o)
 .debug_frame   0x00002f48       0x38 c:/program files/microchip/xc32/v4.21/bin/bin/../../lib/gcc/pic32c/8.3.1/../../../../pic32c/lib/thumb/v7e-m+fp/hard\libc-musl.a(__towrite.o)
 .debug_frame   0x00002f80       0x34 c:/program files/microchip/xc32/v4.21/bin/bin/../../lib/gcc/pic32c/8.3.1/../../../../pic32c/lib/thumb/v7e-m+fp/hard\libc-musl.a(writev.o)
 .debug_frame   0x00002fb4       0x30 c:/program files/microchip/xc32/v4.21/bin/bin/../../lib/gcc/pic32c/8.3.1/../../../../pic32c/lib/thumb/v7e-m+fp/hard\libc-musl.a(__overflow.o)
 .debug_frame   0x00002fe4       0x40 c:/program files/microchip/xc32/v4.21/bin/bin/../../lib/gcc/pic32c/8.3.1/../../../../pic32c/lib/thumb/v7e-m+fp/hard\libc-musl.a(__fwrite.o)
 .debug_frame   0x00003024       0x2c c:/program files/microchip/xc32/v4.21/bin/bin/../../lib/gcc/pic32c/8.3.1/thumb/v7e-m+fp/hard\libgcc.a(_aeabi_uldivmod.o)
 .debug_frame   0x00003050       0x38 c:/program files/microchip/xc32/v4.21/bin/bin/../../lib/gcc/pic32c/8.3.1/thumb/v7e-m+fp/hard\libgcc.a(_udivmoddi4.o)
 .debug_frame   0x00003088       0x20 c:/program files/microchip/xc32/v4.21/bin/bin/../../lib/gcc/pic32c/8.3.1/../../../../pic32c/lib/thumb/v7e-m+fp/hard\libpic32c.a(close.o)
 .debug_frame   0x000030a8       0x20 c:/program files/microchip/xc32/v4.21/bin/bin/../../lib/gcc/pic32c/8.3.1/../../../../pic32c/lib/thumb/v7e-m+fp/hard\libpic32c.a(lseek.o)
 .debug_frame   0x000030c8       0x20 c:/program files/microchip/xc32/v4.21/bin/bin/../../lib/gcc/pic32c/8.3.1/../../../../pic32c/lib/thumb/v7e-m+fp/hard\libpic32c.a(sbrk.o)

.note.GNU-stack
                0x00000000        0x0
 .note.GNU-stack
                0x00000000        0x0 c:/program files/microchip/xc32/v4.21/bin/bin/../../lib/gcc/pic32c/8.3.1/../../../../pic32c/lib/thumb/v7e-m+fp/hard\libc-musl.a(__libc_start_main.o)
 .note.GNU-stack
                0x00000000        0x0 c:/program files/microchip/xc32/v4.21/bin/bin/../../lib/gcc/pic32c/8.3.1/../../../../pic32c/lib/thumb/v7e-m+fp/hard\libc-musl.a(libc.o)
 .note.GNU-stack
                0x00000000        0x0 c:/program files/microchip/xc32/v4.21/bin/bin/../../lib/gcc/pic32c/8.3.1/../../../../pic32c/lib/thumb/v7e-m+fp/hard\libc-musl.a(__sio_printf_dfoux.o)
 .note.GNU-stack
                0x00000000        0x0 c:/program files/microchip/xc32/v4.21/bin/bin/../../lib/gcc/pic32c/8.3.1/../../../../pic32c/lib/thumb/v7e-m+fp/hard\libc-musl.a(__fmt_d.o)
 .note.GNU-stack
                0x00000000        0x0 c:/program files/microchip/xc32/v4.21/bin/bin/../../lib/gcc/pic32c/8.3.1/../../../../pic32c/lib/thumb/v7e-m+fp/hard\libc-musl.a(__fmt_fp.o)
 .note.GNU-stack
                0x00000000        0x0 c:/program files/microchip/xc32/v4.21/bin/bin/../../lib/gcc/pic32c/8.3.1/../../../../pic32c/lib/thumb/v7e-m+fp/hard\libc-musl.a(__fmt_o.o)
 .note.GNU-stack
                0x00000000        0x0 c:/program files/microchip/xc32/v4.21/bin/bin/../../lib/gcc/pic32c/8.3.1/../../../../pic32c/lib/thumb/v7e-m+fp/hard\libc-musl.a(__fmt_s.o)
 .note.GNU-stack
                0x00000000        0x0 c:/program files/microchip/xc32/v4.21/bin/bin/../../lib/gcc/pic32c/8.3.1/../../../../pic32c/lib/thumb/v7e-m+fp/hard\libc-musl.a(__fmt_u.o)
 .note.GNU-stack
                0x00000000        0x0 c:/program files/microchip/xc32/v4.21/bin/bin/../../lib/gcc/pic32c/8.3.1/../../../../pic32c/lib/thumb/v7e-m+fp/hard\libc-musl.a(__fmt_x.o)
 .note.GNU-stack
                0x00000000        0x0 c:/program files/microchip/xc32/v4.21/bin/bin/../../lib/gcc/pic32c/8.3.1/../../../../pic32c/lib/thumb/v7e-m+fp/hard\libc-musl.a(__pop_float.o)
 .note.GNU-stack
                0x00000000        0x0 c:/program files/microchip/xc32/v4.21/bin/bin/../../lib/gcc/pic32c/8.3.1/../../../../pic32c/lib/thumb/v7e-m+fp/hard\libc-musl.a(__pop_int.o)
 .note.GNU-stack
                0x00000000        0x0 c:/program files/microchip/xc32/v4.21/bin/bin/../../lib/gcc/pic32c/8.3.1/../../../../pic32c/lib/thumb/v7e-m+fp/hard\libc-musl.a(__pop_ptr.o)
 .note.GNU-stack
                0x00000000        0x0 c:/program files/microchip/xc32/v4.21/bin/bin/../../lib/gcc/pic32c/8.3.1/../../../../pic32c/lib/thumb/v7e-m+fp/hard\libc-musl.a(__printf_core.o)
 .note.GNU-stack
                0x00000000        0x0 c:/program files/microchip/xc32/v4.21/bin/bin/../../lib/gcc/pic32c/8.3.1/../../../../pic32c/lib/thumb/v7e-m+fp/hard\libc-musl.a(stdin.o)
 .note.GNU-stack
                0x00000000        0x0 c:/program files/microchip/xc32/v4.21/bin/bin/../../lib/gcc/pic32c/8.3.1/../../../../pic32c/lib/thumb/v7e-m+fp/hard\libc-musl.a(stdout.o)
 .note.GNU-stack
                0x00000000        0x0 c:/program files/microchip/xc32/v4.21/bin/bin/../../lib/gcc/pic32c/8.3.1/../../../../pic32c/lib/thumb/v7e-m+fp/hard\libc-musl.a(puts.o)
 .note.GNU-stack
                0x00000000        0x0 c:/program files/microchip/xc32/v4.21/bin/bin/../../lib/gcc/pic32c/8.3.1/../../../../pic32c/lib/thumb/v7e-m+fp/hard\libc-musl.a(setbuf.o)
 .note.GNU-stack
                0x00000000        0x0 c:/program files/microchip/xc32/v4.21/bin/bin/../../lib/gcc/pic32c/8.3.1/../../../../pic32c/lib/thumb/v7e-m+fp/hard\libc-musl.a(atoi.o)
 .note.GNU-stack
                0x00000000        0x0 c:/program files/microchip/xc32/v4.21/bin/bin/../../lib/gcc/pic32c/8.3.1/../../../../pic32c/lib/thumb/v7e-m+fp/hard\libc-musl.a(memcpy.o)
 .note.GNU-stack
                0x00000000        0x0 c:/program files/microchip/xc32/v4.21/bin/bin/../../lib/gcc/pic32c/8.3.1/../../../../pic32c/lib/thumb/v7e-m+fp/hard\libc-musl.a(memset.o)
 .note.GNU-stack
                0x00000000        0x0 c:/program files/microchip/xc32/v4.21/bin/bin/../../lib/gcc/pic32c/8.3.1/../../../../pic32c/lib/thumb/v7e-m+fp/hard\libc-musl.a(strlen.o)
 .note.GNU-stack
                0x00000000        0x0 c:/program files/microchip/xc32/v4.21/bin/bin/../../lib/gcc/pic32c/8.3.1/../../../../pic32c/lib/thumb/v7e-m+fp/hard\libc-musl.a(strcpy.o)
 .note.GNU-stack
                0x00000000        0x0 c:/program files/microchip/xc32/v4.21/bin/bin/../../lib/gcc/pic32c/8.3.1/../../../../pic32c/lib/thumb/v7e-m+fp/hard\libc-musl.a(tolower.o)
 .note.GNU-stack
                0x00000000        0x0 c:/program files/microchip/xc32/v4.21/bin/bin/../../lib/gcc/pic32c/8.3.1/../../../../pic32c/lib/thumb/v7e-m+fp/hard\libc-musl.a(toupper.o)
 .note.GNU-stack
                0x00000000        0x0 c:/program files/microchip/xc32/v4.21/bin/bin/../../lib/gcc/pic32c/8.3.1/../../../../pic32c/lib/thumb/v7e-m+fp/hard\libc-musl.a(__environ.o)
 .note.GNU-stack
                0x00000000        0x0 c:/program files/microchip/xc32/v4.21/bin/bin/../../lib/gcc/pic32c/8.3.1/../../../../pic32c/lib/thumb/v7e-m+fp/hard\libc-musl.a(__errno_location.o)
 .note.GNU-stack
                0x00000000        0x0 c:/program files/microchip/xc32/v4.21/bin/bin/../../lib/gcc/pic32c/8.3.1/../../../../pic32c/lib/thumb/v7e-m+fp/hard\libc-musl.a(__int_vfprintf.o)
 .note.GNU-stack
                0x00000000        0x0 c:/program files/microchip/xc32/v4.21/bin/bin/../../lib/gcc/pic32c/8.3.1/../../../../pic32c/lib/thumb/v7e-m+fp/hard\libc-musl.a(fputs.o)
 .note.GNU-stack
                0x00000000        0x0 c:/program files/microchip/xc32/v4.21/bin/bin/../../lib/gcc/pic32c/8.3.1/../../../../pic32c/lib/thumb/v7e-m+fp/hard\libc-musl.a(__stdio_read.o)
 .note.GNU-stack
                0x00000000        0x0 c:/program files/microchip/xc32/v4.21/bin/bin/../../lib/gcc/pic32c/8.3.1/../../../../pic32c/lib/thumb/v7e-m+fp/hard\libc-musl.a(__towrite_rw.o)
 .note.GNU-stack
                0x00000000        0x0 c:/program files/microchip/xc32/v4.21/bin/bin/../../lib/gcc/pic32c/8.3.1/../../../../pic32c/lib/thumb/v7e-m+fp/hard\libc-musl.a(fwrite.o)
 .note.GNU-stack
                0x00000000        0x0 c:/program files/microchip/xc32/v4.21/bin/bin/../../lib/gcc/pic32c/8.3.1/../../../../pic32c/lib/thumb/v7e-m+fp/hard\libc-musl.a(putc.o)
 .note.GNU-stack
                0x00000000        0x0 c:/program files/microchip/xc32/v4.21/bin/bin/../../lib/gcc/pic32c/8.3.1/../../../../pic32c/lib/thumb/v7e-m+fp/hard\libc-musl.a(setvbuf.o)
 .note.GNU-stack
                0x00000000        0x0 c:/program files/microchip/xc32/v4.21/bin/bin/../../lib/gcc/pic32c/8.3.1/../../../../pic32c/lib/thumb/v7e-m+fp/hard\libc-musl.a(stpcpy.o)
 .note.GNU-stack
                0x00000000        0x0 c:/program files/microchip/xc32/v4.21/bin/bin/../../lib/gcc/pic32c/8.3.1/../../../../pic32c/lib/thumb/v7e-m+fp/hard\libc-musl.a(readv.o)
 .note.GNU-stack
                0x00000000        0x0 c:/program files/microchip/xc32/v4.21/bin/bin/../../lib/gcc/pic32c/8.3.1/../../../../pic32c/lib/thumb/v7e-m+fp/hard\libc-musl.a(malloc.o)
 .note.GNU-stack
                0x00000000        0x0 c:/program files/microchip/xc32/v4.21/bin/bin/../../lib/gcc/pic32c/8.3.1/../../../../pic32c/lib/thumb/v7e-m+fp/hard\libc-musl.a(expand_heap.o)
 .note.GNU-stack
                0x00000000        0x0 c:/program files/microchip/xc32/v4.21/bin/bin/../../lib/gcc/pic32c/8.3.1/../../../../pic32c/lib/thumb/v7e-m+fp/hard\libc-musl.a(__init_stdio.o)
 .note.GNU-stack
                0x00000000        0x0 c:/program files/microchip/xc32/v4.21/bin/bin/../../lib/gcc/pic32c/8.3.1/../../../../pic32c/lib/thumb/v7e-m+fp/hard\libc-musl.a(__out.o)
 .note.GNU-stack
                0x00000000        0x0 c:/program files/microchip/xc32/v4.21/bin/bin/../../lib/gcc/pic32c/8.3.1/../../../../pic32c/lib/thumb/v7e-m+fp/hard\libc-musl.a(__putc.o)
 .note.GNU-stack
                0x00000000        0x0 c:/program files/microchip/xc32/v4.21/bin/bin/../../lib/gcc/pic32c/8.3.1/../../../../pic32c/lib/thumb/v7e-m+fp/hard\libc-musl.a(__stderr.o)
 .note.GNU-stack
                0x00000000        0x0 c:/program files/microchip/xc32/v4.21/bin/bin/../../lib/gcc/pic32c/8.3.1/../../../../pic32c/lib/thumb/v7e-m+fp/hard\libc-musl.a(__stdio_close.o)
 .note.GNU-stack
                0x00000000        0x0 c:/program files/microchip/xc32/v4.21/bin/bin/../../lib/gcc/pic32c/8.3.1/../../../../pic32c/lib/thumb/v7e-m+fp/hard\libc-musl.a(__stdio_write.o)
 .note.GNU-stack
                0x00000000        0x0 c:/program files/microchip/xc32/v4.21/bin/bin/../../lib/gcc/pic32c/8.3.1/../../../../pic32c/lib/thumb/v7e-m+fp/hard\libc-musl.a(__stdout.o)
 .note.GNU-stack
                0x00000000        0x0 c:/program files/microchip/xc32/v4.21/bin/bin/../../lib/gcc/pic32c/8.3.1/../../../../pic32c/lib/thumb/v7e-m+fp/hard\libc-musl.a(__towrite.o)
 .note.GNU-stack
                0x00000000        0x0 c:/program files/microchip/xc32/v4.21/bin/bin/../../lib/gcc/pic32c/8.3.1/../../../../pic32c/lib/thumb/v7e-m+fp/hard\libc-musl.a(writev.o)
 .note.GNU-stack
                0x00000000        0x0 c:/program files/microchip/xc32/v4.21/bin/bin/../../lib/gcc/pic32c/8.3.1/../../../../pic32c/lib/thumb/v7e-m+fp/hard\libc-musl.a(__overflow.o)
 .note.GNU-stack
                0x00000000        0x0 c:/program files/microchip/xc32/v4.21/bin/bin/../../lib/gcc/pic32c/8.3.1/../../../../pic32c/lib/thumb/v7e-m+fp/hard\libc-musl.a(__fwrite.o)

__xc_reference_data
                0x00000000       0xc0
 __xc_reference_data
                0x00000000        0x4 c:/program files/microchip/xc32/v4.21/bin/bin/../../lib/gcc/pic32c/8.3.1/../../../../pic32c/lib/thumb/v7e-m+fp/hard\libc-musl.a(stdin.o)
                0x00000000                __stdin_needs_rw
 __xc_reference_data
                0x00000004        0x4 c:/program files/microchip/xc32/v4.21/bin/bin/../../lib/gcc/pic32c/8.3.1/../../../../pic32c/lib/thumb/v7e-m+fp/hard\libc-musl.a(stdout.o)
                0x00000004                __stdout_needs_init
 __xc_reference_data
                0x00000008        0xc c:/program files/microchip/xc32/v4.21/bin/bin/../../lib/gcc/pic32c/8.3.1/../../../../pic32c/lib/thumb/v7e-m+fp/hard\libc-musl.a(__io_init_needed.o)
                0x00000008                __io_init_needed
                0x00000010                __io_init_needs_file
 __xc_reference_data
                0x00000014       0x24 c:/program files/microchip/xc32/v4.21/bin/bin/../../lib/gcc/pic32c/8.3.1/../../../../pic32c/lib/thumb/v7e-m+fp/hard\libc-musl.a(__io_rw_needed.o)
                0x00000014                __io_rw_needed
 __xc_reference_data
                0x00000038        0x8 c:/program files/microchip/xc32/v4.21/bin/bin/../../lib/gcc/pic32c/8.3.1/../../../../pic32c/lib/thumb/v7e-m+fp/hard\libc-musl.a(putc.o)
                0x00000038                __putc_needs_out
 __xc_reference_data
                0x00000040        0x4 c:/program files/microchip/xc32/v4.21/bin/bin/../../lib/gcc/pic32c/8.3.1/../../../../pic32c/lib/thumb/v7e-m+fp/hard\libc-musl.a(setvbuf.o)
                0x00000040                __setvbuf_needs_buf
 __xc_reference_data
                0x00000044       0x38 c:/program files/microchip/xc32/v4.21/bin/bin/../../lib/gcc/pic32c/8.3.1/../../../../pic32c/lib/thumb/v7e-m+fp/hard\libc-musl.a(__io_buf_needed.o)
                0x00000044                __io_buf_needed
 __xc_reference_data
                0x0000007c        0x8 c:/program files/microchip/xc32/v4.21/bin/bin/../../lib/gcc/pic32c/8.3.1/../../../../pic32c/lib/thumb/v7e-m+fp/hard\libc-musl.a(__io_file_needed.o)
                0x0000007c                __io_file_needed
 __xc_reference_data
                0x00000084       0x30 c:/program files/microchip/xc32/v4.21/bin/bin/../../lib/gcc/pic32c/8.3.1/../../../../pic32c/lib/thumb/v7e-m+fp/hard\libc-musl.a(__io_std_needed.o)
                0x00000084                __io_std_needed
 __xc_reference_data
                0x000000b4        0x4 c:/program files/microchip/xc32/v4.21/bin/bin/../../lib/gcc/pic32c/8.3.1/../../../../pic32c/lib/thumb/v7e-m+fp/hard\libc-musl.a(__stderr.o)
                0x000000b4                __stderr_needs_file
 __xc_reference_data
                0x000000b8        0x4 c:/program files/microchip/xc32/v4.21/bin/bin/../../lib/gcc/pic32c/8.3.1/../../../../pic32c/lib/thumb/v7e-m+fp/hard\libc-musl.a(__stdout.o)
                0x000000b8                __stdout_needs_file
 __xc_reference_data
                0x000000bc        0x4 c:/program files/microchip/xc32/v4.21/bin/bin/../../lib/gcc/pic32c/8.3.1/../../../../pic32c/lib/thumb/v7e-m+fp/hard\libc-musl.a(__fwrite.o)
                0x000000bc                __fwrite_needs_std

.stack          0x2000feb0      0x100
 .stack         0x2000feb0      0x100 stack

.bss.ucHeap%1   0x20000000     0xee20
 .bss.ucHeap    0x20000000     0xee20 build/default/production/_ext/1665200909/heap_4.o

.bss%2          0x2000ee20      0x614
 .bss           0x2000ee20      0x408 c:/program files/microchip/xc32/v4.21/bin/bin/../../lib/gcc/pic32c/8.3.1/../../../../pic32c/lib/thumb/v7e-m+fp/hard\libc-musl.a(stdin.o)
 .bss           0x2000f228      0x20c c:/program files/microchip/xc32/v4.21/bin/bin/../../lib/gcc/pic32c/8.3.1/../../../../pic32c/lib/thumb/v7e-m+fp/hard\libc-musl.a(malloc.o)

.bss.ESP_RX_DATA%4
                0x2000f434      0x208
 .bss.ESP_RX_DATA
                0x2000f434      0x208 build/default/production/_ext/1360937237/main.o
                0x2000f434                ESP_RX_DATA

.bss.AC_DC_METER_RX_DATA%5
                0x2000f63c      0x104
 .bss.AC_DC_METER_RX_DATA
                0x2000f63c      0x104 build/default/production/_ext/1360937237/main.o
                0x2000f63c                AC_DC_METER_RX_DATA

.bss.eicCallbackObject%6
                0x2000f740       0xc0
 .bss.eicCallbackObject
                0x2000f740       0xc0 build/default/production/_ext/60167341/plib_eic.o

.bss.pxReadyTasksLists%7
                0x2000f800       0x64
 .bss.pxReadyTasksLists
                0x2000f800       0x64 build/default/production/_ext/404212886/FreeRTOS_tasks.o

.bss%8          0x2000f864       0x50
 .bss           0x2000f864       0x50 c:/program files/microchip/xc32/v4.21/bin/bin/../../lib/gcc/pic32c/8.3.1/../../../../pic32c/lib/thumb/v7e-m+fp/hard\libc-musl.a(libc.o)
                0x2000f864                __progname_full
                0x2000f864                program_invocation_name
                0x2000f868                program_invocation_short_name
                0x2000f868                __progname
                0x2000f86c                __sysinfo
                0x2000f870                __hwcap
                0x2000f874                __libc

.bss.HMI_RX_DATA%9
                0x2000f8b4       0x32
 .bss.HMI_RX_DATA
                0x2000f8b4       0x32 build/default/production/_ext/1360937237/main.o
                0x2000f8b4                HMI_RX_DATA

.bss.RFID_DATA%10
                0x2000f8e8       0x32
 .bss.RFID_DATA
                0x2000f8e8       0x32 build/default/production/_ext/1360937237/main.o

.bss.sercom7USARTObj%11
                0x2000f91c       0x30
 .bss.sercom7USARTObj
                0x2000f91c       0x30 build/default/production/_ext/504274921/plib_sercom7_usart.o

.bss.sercom6USARTObj%12
                0x2000f94c       0x30
 .bss.sercom6USARTObj
                0x2000f94c       0x30 build/default/production/_ext/504274921/plib_sercom6_usart.o

.bss.sercom2USARTObj%13
                0x2000f97c       0x30
 .bss.sercom2USARTObj
                0x2000f97c       0x30 build/default/production/_ext/504274921/plib_sercom2_usart.o

.bss.sercom1USARTObj%14
                0x2000f9ac       0x30
 .bss.sercom1USARTObj
                0x2000f9ac       0x30 build/default/production/_ext/504274921/plib_sercom1_usart.o

.bss.sercom3I2CObj%15
                0x2000f9dc       0x2c
 .bss.sercom3I2CObj
                0x2000f9dc       0x2c build/default/production/_ext/508257091/plib_sercom3_i2c_master.o

.bss%16         0x2000fa08       0x1c
 .bss           0x2000fa08       0x1c c:/program files/microchip/xc32/v4.21/bin/bin/../../lib/gcc/pic32c/8.3.1/thumb/v7e-m+fp/hard/crtbegin.o

.bss.xActiveTimerList1%17
                0x2000fa24       0x14
 .bss.xActiveTimerList1
                0x2000fa24       0x14 build/default/production/_ext/404212886/timers.o

.bss.xActiveTimerList2%18
                0x2000fa38       0x14
 .bss.xActiveTimerList2
                0x2000fa38       0x14 build/default/production/_ext/404212886/timers.o

.bss.xDelayedTaskList1%19
                0x2000fa4c       0x14
 .bss.xDelayedTaskList1
                0x2000fa4c       0x14 build/default/production/_ext/404212886/FreeRTOS_tasks.o

.bss.xDelayedTaskList2%20
                0x2000fa60       0x14
 .bss.xDelayedTaskList2
                0x2000fa60       0x14 build/default/production/_ext/404212886/FreeRTOS_tasks.o

.bss.xPendingReadyList%21
                0x2000fa74       0x14
 .bss.xPendingReadyList
                0x2000fa74       0x14 build/default/production/_ext/404212886/FreeRTOS_tasks.o

.bss.xSuspendedTaskList%22
                0x2000fa88       0x14
 .bss.xSuspendedTaskList
                0x2000fa88       0x14 build/default/production/_ext/404212886/FreeRTOS_tasks.o

.bss.xTasksWaitingTermination%23
                0x2000fa9c       0x14
 .bss.xTasksWaitingTermination
                0x2000fa9c       0x14 build/default/production/_ext/404212886/FreeRTOS_tasks.o

.bss.xStart%24  0x2000fab0        0x8
 .bss.xStart    0x2000fab0        0x8 build/default/production/_ext/1665200909/heap_4.o

.bss%25         0x2000fab8        0x8
 .bss           0x2000fab8        0x8 c:/program files/microchip/xc32/v4.21/bin/bin/../../lib/gcc/pic32c/8.3.1/../../../../pic32c/lib/thumb/v7e-m+fp/hard\libc-musl.a(stdout.o)
                0x2000fabc                __stdout_used

.bss.pxEnd%26   0x2000fac0        0x4
 .bss.pxEnd     0x2000fac0        0x4 build/default/production/_ext/1665200909/heap_4.o

.bss.xFreeBytesRemaining%27
                0x2000fac4        0x4
 .bss.xFreeBytesRemaining
                0x2000fac4        0x4 build/default/production/_ext/1665200909/heap_4.o

.bss.xMinimumEverFreeBytesRemaining%28
                0x2000fac8        0x4
 .bss.xMinimumEverFreeBytesRemaining
                0x2000fac8        0x4 build/default/production/_ext/1665200909/heap_4.o

.bss.xNumberOfSuccessfulAllocations%29
                0x2000facc        0x4
 .bss.xNumberOfSuccessfulAllocations
                0x2000facc        0x4 build/default/production/_ext/1665200909/heap_4.o

.bss.xNumberOfSuccessfulFrees%30
                0x2000fad0        0x4
 .bss.xNumberOfSuccessfulFrees
                0x2000fad0        0x4 build/default/production/_ext/1665200909/heap_4.o

.bss.pxCurrentTimerList%31
                0x2000fad4        0x4
 .bss.pxCurrentTimerList
                0x2000fad4        0x4 build/default/production/_ext/404212886/timers.o

.bss.pxOverflowTimerList%32
                0x2000fad8        0x4
 .bss.pxOverflowTimerList
                0x2000fad8        0x4 build/default/production/_ext/404212886/timers.o

.bss.xLastTime.6497%33
                0x2000fadc        0x4
 .bss.xLastTime.6497
                0x2000fadc        0x4 build/default/production/_ext/404212886/timers.o

.bss.xTimerQueue%34
                0x2000fae0        0x4
 .bss.xTimerQueue
                0x2000fae0        0x4 build/default/production/_ext/404212886/timers.o

.bss.xTimerTaskHandle%35
                0x2000fae4        0x4
 .bss.xTimerTaskHandle
                0x2000fae4        0x4 build/default/production/_ext/404212886/timers.o

.bss.pxCurrentTCB%36
                0x2000fae8        0x4
 .bss.pxCurrentTCB
                0x2000fae8        0x4 build/default/production/_ext/404212886/FreeRTOS_tasks.o
                0x2000fae8                pxCurrentTCB

.bss.pxDelayedTaskList%37
                0x2000faec        0x4
 .bss.pxDelayedTaskList
                0x2000faec        0x4 build/default/production/_ext/404212886/FreeRTOS_tasks.o

.bss.pxOverflowDelayedTaskList%38
                0x2000faf0        0x4
 .bss.pxOverflowDelayedTaskList
                0x2000faf0        0x4 build/default/production/_ext/404212886/FreeRTOS_tasks.o

.bss.uxCurrentNumberOfTasks%39
                0x2000faf4        0x4
 .bss.uxCurrentNumberOfTasks
                0x2000faf4        0x4 build/default/production/_ext/404212886/FreeRTOS_tasks.o

.bss.uxDeletedTasksWaitingCleanUp%40
                0x2000faf8        0x4
 .bss.uxDeletedTasksWaitingCleanUp
                0x2000faf8        0x4 build/default/production/_ext/404212886/FreeRTOS_tasks.o

.bss.uxSchedulerSuspended%41
                0x2000fafc        0x4
 .bss.uxSchedulerSuspended
                0x2000fafc        0x4 build/default/production/_ext/404212886/FreeRTOS_tasks.o

.bss.uxTaskNumber%42
                0x2000fb00        0x4
 .bss.uxTaskNumber
                0x2000fb00        0x4 build/default/production/_ext/404212886/FreeRTOS_tasks.o

.bss.uxTopReadyPriority%43
                0x2000fb04        0x4
 .bss.uxTopReadyPriority
                0x2000fb04        0x4 build/default/production/_ext/404212886/FreeRTOS_tasks.o

.bss.xIdleTaskHandle%44
                0x2000fb08        0x4
 .bss.xIdleTaskHandle
                0x2000fb08        0x4 build/default/production/_ext/404212886/FreeRTOS_tasks.o

.bss.xNextTaskUnblockTime%45
                0x2000fb0c        0x4
 .bss.xNextTaskUnblockTime
                0x2000fb0c        0x4 build/default/production/_ext/404212886/FreeRTOS_tasks.o

.bss.xNumOfOverflows%46
                0x2000fb10        0x4
 .bss.xNumOfOverflows
                0x2000fb10        0x4 build/default/production/_ext/404212886/FreeRTOS_tasks.o

.bss.xPendedTicks%47
                0x2000fb14        0x4
 .bss.xPendedTicks
                0x2000fb14        0x4 build/default/production/_ext/404212886/FreeRTOS_tasks.o

.bss.xSchedulerRunning%48
                0x2000fb18        0x4
 .bss.xSchedulerRunning
                0x2000fb18        0x4 build/default/production/_ext/404212886/FreeRTOS_tasks.o

.bss.xTickCount%49
                0x2000fb1c        0x4
 .bss.xTickCount
                0x2000fb1c        0x4 build/default/production/_ext/404212886/FreeRTOS_tasks.o

.bss.xYieldPending%50
                0x2000fb20        0x4
 .bss.xYieldPending
                0x2000fb20        0x4 build/default/production/_ext/404212886/FreeRTOS_tasks.o

.bss.AC_DC_METER_QUEUE%51
                0x2000fb24        0x4
 .bss.AC_DC_METER_QUEUE
                0x2000fb24        0x4 build/default/production/_ext/1360937237/main.o
                0x2000fb24                AC_DC_METER_QUEUE

.bss.AC_DC_METER_RECEIVE_TaskHandle%52
                0x2000fb28        0x4
 .bss.AC_DC_METER_RECEIVE_TaskHandle
                0x2000fb28        0x4 build/default/production/_ext/1360937237/main.o
                0x2000fb28                AC_DC_METER_RECEIVE_TaskHandle

.bss.AC_DC_METER_SEND_TaskHandle%53
                0x2000fb2c        0x4
 .bss.AC_DC_METER_SEND_TaskHandle
                0x2000fb2c        0x4 build/default/production/_ext/1360937237/main.o
                0x2000fb2c                AC_DC_METER_SEND_TaskHandle

.bss.ESP_QUEUE%54
                0x2000fb30        0x4
 .bss.ESP_QUEUE
                0x2000fb30        0x4 build/default/production/_ext/1360937237/main.o
                0x2000fb30                ESP_QUEUE

.bss.ESP_RECEIVE_TaskHandle%55
                0x2000fb34        0x4
 .bss.ESP_RECEIVE_TaskHandle
                0x2000fb34        0x4 build/default/production/_ext/1360937237/main.o
                0x2000fb34                ESP_RECEIVE_TaskHandle

.bss.ESP_SEND_TaskHandle%56
                0x2000fb38        0x4
 .bss.ESP_SEND_TaskHandle
                0x2000fb38        0x4 build/default/production/_ext/1360937237/main.o
                0x2000fb38                ESP_SEND_TaskHandle

.bss.GUN_TEMP_TaskHandle%57
                0x2000fb3c        0x4
 .bss.GUN_TEMP_TaskHandle
                0x2000fb3c        0x4 build/default/production/_ext/1360937237/main.o
                0x2000fb3c                GUN_TEMP_TaskHandle

.bss.HMI_QUEUE%58
                0x2000fb40        0x4
 .bss.HMI_QUEUE
                0x2000fb40        0x4 build/default/production/_ext/1360937237/main.o
                0x2000fb40                HMI_QUEUE

.bss.HMI_RECEIVE_TaskHandle%59
                0x2000fb44        0x4
 .bss.HMI_RECEIVE_TaskHandle
                0x2000fb44        0x4 build/default/production/_ext/1360937237/main.o
                0x2000fb44                HMI_RECEIVE_TaskHandle

.bss.HMI_SEND_TaskHandle%60
                0x2000fb48        0x4
 .bss.HMI_SEND_TaskHandle
                0x2000fb48        0x4 build/default/production/_ext/1360937237/main.o
                0x2000fb48                HMI_SEND_TaskHandle

.bss.MACHINE_STATE%61
                0x2000fb4c        0x4
 .bss.MACHINE_STATE
                0x2000fb4c        0x4 build/default/production/_ext/1360937237/main.o

.bss.MACHINE_STATEHandle%62
                0x2000fb50        0x4
 .bss.MACHINE_STATEHandle
                0x2000fb50        0x4 build/default/production/_ext/1360937237/main.o
                0x2000fb50                MACHINE_STATEHandle

.bss.POWERBANK_MONITOR_TaskHandle%63
                0x2000fb54        0x4
 .bss.POWERBANK_MONITOR_TaskHandle
                0x2000fb54        0x4 build/default/production/_ext/1360937237/main.o
                0x2000fb54                POWERBANK_MONITOR_TaskHandle

.bss.RFID_ID_RECEIVED.10320%64
                0x2000fb58        0x4
 .bss.RFID_ID_RECEIVED.10320
                0x2000fb58        0x4 build/default/production/_ext/1360937237/main.o

.bss.RFID_RECEIVEHandle%65
                0x2000fb5c        0x4
 .bss.RFID_RECEIVEHandle
                0x2000fb5c        0x4 build/default/production/_ext/1360937237/main.o
                0x2000fb5c                RFID_RECEIVEHandle

.bss.RFID_SENDHandle%66
                0x2000fb60        0x4
 .bss.RFID_SENDHandle
                0x2000fb60        0x4 build/default/production/_ext/1360937237/main.o
                0x2000fb60                RFID_SENDHandle

.bss.RGB1_QUEUE%67
                0x2000fb64        0x4
 .bss.RGB1_QUEUE
                0x2000fb64        0x4 build/default/production/_ext/1360937237/main.o
                0x2000fb64                RGB1_QUEUE

.bss.RGB_QUEUE%68
                0x2000fb68        0x4
 .bss.RGB_QUEUE
                0x2000fb68        0x4 build/default/production/_ext/1360937237/main.o
                0x2000fb68                RGB_QUEUE

.bss.RGB_SEND_TaskHandle%69
                0x2000fb6c        0x4
 .bss.RGB_SEND_TaskHandle
                0x2000fb6c        0x4 build/default/production/_ext/1360937237/main.o
                0x2000fb6c                RGB_SEND_TaskHandle

.bss.TEMP_ADC_TaskHandle%70
                0x2000fb70        0x4
 .bss.TEMP_ADC_TaskHandle
                0x2000fb70        0x4 build/default/production/_ext/1360937237/main.o
                0x2000fb70                TEMP_ADC_TaskHandle

.bss.TEMP_HUMI_TaskHandle%71
                0x2000fb74        0x4
 .bss.TEMP_HUMI_TaskHandle
                0x2000fb74        0x4 build/default/production/_ext/1360937237/main.o
                0x2000fb74                TEMP_HUMI_TaskHandle

.bss.count.10224%72
                0x2000fb78        0x4
 .bss.count.10224
                0x2000fb78        0x4 build/default/production/_ext/1360937237/main.o

.bss.defaultTaskHandle%73
                0x2000fb7c        0x4
 .bss.defaultTaskHandle
                0x2000fb7c        0x4 build/default/production/_ext/1360937237/main.o
                0x2000fb7c                defaultTaskHandle

.bss.mains_timer%74
                0x2000fb80        0x4
 .bss.mains_timer
                0x2000fb80        0x4 build/default/production/_ext/1360937237/main.o

.bss.tick1%75   0x2000fb84        0x4
 .bss.tick1     0x2000fb84        0x4 build/default/production/_ext/1360937237/main.o
                0x2000fb84                tick1

.bss.tick2%76   0x2000fb88        0x4
 .bss.tick2     0x2000fb88        0x4 build/default/production/_ext/1360937237/main.o
                0x2000fb88                tick2

.bss%77         0x2000fb8c       0x10
 .bss           0x2000fb8c        0x4 c:/program files/microchip/xc32/v4.21/bin/bin/../../lib/gcc/pic32c/8.3.1/../../../../pic32c/lib/thumb/v7e-m+fp/hard\libpic32c.a(data_init_0_1.o)
 .bss           0x2000fb90        0x4 c:/program files/microchip/xc32/v4.21/bin/bin/../../lib/gcc/pic32c/8.3.1/../../../../pic32c/lib/thumb/v7e-m+fp/hard\libc-musl.a(__environ.o)
                0x2000fb90                __environ
                0x2000fb90                environ
                0x2000fb90                ___environ
                0x2000fb90                _environ
 .bss           0x2000fb94        0x4 c:/program files/microchip/xc32/v4.21/bin/bin/../../lib/gcc/pic32c/8.3.1/../../../../pic32c/lib/thumb/v7e-m+fp/hard\libc-musl.a(__errno_location.o)
                0x2000fb94                __errno_val
 .bss           0x2000fb98        0x4 c:/program files/microchip/xc32/v4.21/bin/bin/../../lib/gcc/pic32c/8.3.1/../../../../pic32c/lib/thumb/v7e-m+fp/hard\libpic32c.a(sbrk.o)

.bss.RGB_STATE.10234%81
                0x2000f8e6        0x1
 .bss.RGB_STATE.10234
                0x2000f8e6        0x1 build/default/production/_ext/1360937237/main.o

.bss.state.10341%82
                0x2000f8e7        0x1
 .bss.state.10341
                0x2000f8e7        0x1 build/default/production/_ext/1360937237/main.o

.data%83        0x2000fb9c       0xec
 .data          0x2000fb9c       0x6c c:/program files/microchip/xc32/v4.21/bin/bin/../../lib/gcc/pic32c/8.3.1/../../../../pic32c/lib/thumb/v7e-m+fp/hard\libc-musl.a(stdin.o)
                0x2000fb9c                __stdin_used
                0x2000fba0                _stdin
 .data          0x2000fc08       0x60 c:/program files/microchip/xc32/v4.21/bin/bin/../../lib/gcc/pic32c/8.3.1/../../../../pic32c/lib/thumb/v7e-m+fp/hard\libc-musl.a(__stdout.o)
 .data          0x2000fc68       0x20 c:/program files/microchip/xc32/v4.21/bin/bin/../../lib/gcc/pic32c/8.3.1/../../../../pic32c/lib/thumb/v7e-m+fp/hard\libc-musl.a(stdout.o)
                0x2000fc84                _stdout

.data.uxCriticalNesting%86
                0x2000fc88        0x4
 .data.uxCriticalNesting
                0x2000fc88        0x4 build/default/production/_ext/246609638/port.o

.data.uxTopUsedPriority%87
                0x2000fc8c        0x4
 .data.uxTopUsedPriority
                0x2000fc8c        0x4 build/default/production/_ext/404212886/FreeRTOS_tasks.o
                0x2000fc8c                uxTopUsedPriority

.data.CURRENT_RFID_RX_SIZE%88
                0x2000f91a        0x1
 .data.CURRENT_RFID_RX_SIZE
                0x2000f91a        0x1 build/default/production/_ext/1360937237/main.o

.eh_frame%z1    0x00000000        0x0
 .eh_frame      0x00000000        0x0 c:/program files/microchip/xc32/v4.21/bin/bin/../../lib/gcc/pic32c/8.3.1/thumb/v7e-m+fp/hard/crtbegin.o

.config_00804000.__config_00804000%89
                0x00804000        0x4
 .config_00804000.__config_00804000
                0x00804000        0x4 build/default/production/_ext/1171490990/initialization.o
                0x00804000                __config_00804000

.config_00804004.__config_00804004%90
                0x00804004        0x4
 .config_00804004.__config_00804004
                0x00804004        0x4 build/default/production/_ext/1171490990/initialization.o
                0x00804004                __config_00804004

.config_00804008.__config_00804008%91
                0x00804008        0x4
 .config_00804008.__config_00804008
                0x00804008        0x4 build/default/production/_ext/1171490990/initialization.o
                0x00804008                __config_00804008

.dinit%92       0x00000288      0x520
 .dinit         0x00000288      0x520 data_init

.text.__fmt_fp%93
                0x000007a8      0x4c4
 .text.__fmt_fp
                0x000007a8      0x4c4 c:/program files/microchip/xc32/v4.21/bin/bin/../../lib/gcc/pic32c/8.3.1/../../../../pic32c/lib/thumb/v7e-m+fp/hard\libc-musl.a(__fmt_fp.o)
                0x000007a8                __fmt_f_needed
                0x000007a8                __fmt_fp

.text.main%94   0x00000c6c      0x3a4
 .text.main     0x00000c6c      0x3a4 build/default/production/_ext/1360937237/main.o
                0x00000c6c                main

.text.StartRGB_SENDTask%95
                0x00001010      0x340
 .text.StartRGB_SENDTask
                0x00001010      0x340 build/default/production/_ext/1360937237/main.o
                0x00001010                StartRGB_SENDTask

.rodata%96      0x00001350      0x310
 .rodata        0x00001350      0x310 build/default/production/_ext/1360937237/main.o

.text.__printf_core%97
                0x00001660      0x2f4
 .text.__printf_core
                0x00001660      0x2f4 c:/program files/microchip/xc32/v4.21/bin/bin/../../lib/gcc/pic32c/8.3.1/../../../../pic32c/lib/thumb/v7e-m+fp/hard\libc-musl.a(__printf_core.o)
                0x00001660                __printf_core

.text%98        0x00001954      0x2bc
 .text          0x00001954      0x2bc c:/program files/microchip/xc32/v4.21/bin/bin/../../lib/gcc/pic32c/8.3.1/thumb/v7e-m+fp/hard\libgcc.a(_udivmoddi4.o)
                0x00001954                __udivmoddi4

.text.__aeabi_dadd%99
                0x00001c10      0x23e
 .text.__aeabi_dadd
                0x00001c10      0x23e c:/program files/microchip/xc32/v4.21/bin/bin/../../lib/gcc/pic32c/8.3.1/../../../../pic32c/lib/thumb/v7e-m+fp/hard\libm-emfloat.a(__aeabi_dadd.o)
                0x00001c10                __aeabi_dadd

.text.__aeabi_ddiv%100
                0x00001e4e      0x216
 .text.__aeabi_ddiv
                0x00001e4e      0x216 c:/program files/microchip/xc32/v4.21/bin/bin/../../lib/gcc/pic32c/8.3.1/../../../../pic32c/lib/thumb/v7e-m+fp/hard\libm-emfloat.a(__aeabi_ddiv.o)
                0x00001e4e                __aeabi_ddiv

.text.xTaskCreate%101
                0x00002064      0x1f4
 .text.xTaskCreate
                0x00002064      0x1f4 build/default/production/_ext/404212886/FreeRTOS_tasks.o
                0x00002064                xTaskCreate

.text.CLOCK_Initialize%102
                0x00002258      0x1c0
 .text.CLOCK_Initialize
                0x00002258      0x1c0 build/default/production/_ext/1984496892/plib_clock.o
                0x00002258                CLOCK_Initialize

.text.SERCOM3_I2C_InterruptHandler%103
                0x00002418      0x1bc
 .text.SERCOM3_I2C_InterruptHandler
                0x00002418      0x1bc build/default/production/_ext/508257091/plib_sercom3_i2c_master.o
                0x00002418                SERCOM3_I2C_InterruptHandler

.text.malloc%104
                0x000025d4      0x1b0
 .text.malloc   0x000025d4      0x1b0 c:/program files/microchip/xc32/v4.21/bin/bin/../../lib/gcc/pic32c/8.3.1/../../../../pic32c/lib/thumb/v7e-m+fp/hard\libc-musl.a(malloc.o)
                0x000025d4                malloc

.text.xTaskIncrementTick%105
                0x00002784      0x194
 .text.xTaskIncrementTick
                0x00002784      0x194 build/default/production/_ext/404212886/FreeRTOS_tasks.o
                0x00002784                xTaskIncrementTick

.text.xTaskResumeAll%106
                0x00002918      0x170
 .text.xTaskResumeAll
                0x00002918      0x170 build/default/production/_ext/404212886/FreeRTOS_tasks.o
                0x00002918                xTaskResumeAll

.text.StartRFID_RECEIVETask%107
                0x00002a88      0x168
 .text.StartRFID_RECEIVETask
                0x00002a88      0x168 build/default/production/_ext/1360937237/main.o
                0x00002a88                StartRFID_RECEIVETask

.text.NVIC_Initialize%108
                0x00002bf0      0x15c
 .text.NVIC_Initialize
                0x00002bf0      0x15c build/default/production/_ext/1865468468/plib_nvic.o
                0x00002bf0                NVIC_Initialize

.text.prvTimerTask%109
                0x00002d4c      0x15c
 .text.prvTimerTask
                0x00002d4c      0x15c build/default/production/_ext/404212886/timers.o

.text.__aeabi_dmul%110
                0x00002ea8      0x130
 .text.__aeabi_dmul
                0x00002ea8      0x130 c:/program files/microchip/xc32/v4.21/bin/bin/../../lib/gcc/pic32c/8.3.1/../../../../pic32c/lib/thumb/v7e-m+fp/hard\libm-emfloat.a(__aeabi_dmul.o)
                0x00002ea8                __aeabi_dmul

.text.xQueueGenericSend%111
                0x00002fd8      0x124
 .text.xQueueGenericSend
                0x00002fd8      0x124 build/default/production/_ext/404212886/queue.o
                0x00002fd8                xQueueGenericSend

.text.__fmt_x%112
                0x000030fc      0x11e
 .text.__fmt_x  0x000030fc      0x11e c:/program files/microchip/xc32/v4.21/bin/bin/../../lib/gcc/pic32c/8.3.1/../../../../pic32c/lib/thumb/v7e-m+fp/hard\libc-musl.a(__fmt_x.o)
                0x000030fc                __fmt_x_needed
                0x000030fc                __fmt_x

.text.pvPortMalloc%113
                0x0000321c      0x118
 .text.pvPortMalloc
                0x0000321c      0x118 build/default/production/_ext/1665200909/heap_4.o
                0x0000321c                pvPortMalloc

.text.xQueueReceive%114
                0x00003334      0x110
 .text.xQueueReceive
                0x00003334      0x110 build/default/production/_ext/404212886/queue.o
                0x00003334                xQueueReceive

.text.free%115  0x00003444       0xf8
 .text.free     0x00003444       0xf8 c:/program files/microchip/xc32/v4.21/bin/bin/../../lib/gcc/pic32c/8.3.1/../../../../pic32c/lib/thumb/v7e-m+fp/hard\libc-musl.a(malloc.o)
                0x00003444                free

.text.StartDefaultTask%116
                0x0000353c       0xec
 .text.StartDefaultTask
                0x0000353c       0xec build/default/production/_ext/1360937237/main.o
                0x0000353c                StartDefaultTask

.text.PORT_Initialize%117
                0x00003628       0xe8
 .text.PORT_Initialize
                0x00003628       0xe8 build/default/production/_ext/1865521619/plib_port.o
                0x00003628                PORT_Initialize

.text.xTaskRemoveFromEventList%118
                0x00003710       0xd8
 .text.xTaskRemoveFromEventList
                0x00003710       0xd8 build/default/production/_ext/404212886/FreeRTOS_tasks.o
                0x00003710                xTaskRemoveFromEventList

.text.vTaskSuspend%119
                0x000037e8       0xcc
 .text.vTaskSuspend
                0x000037e8       0xcc build/default/production/_ext/404212886/FreeRTOS_tasks.o
                0x000037e8                vTaskSuspend

.text.floor%120
                0x000038b8       0xcc
 .text.floor    0x000038b8       0xcc c:/program files/microchip/xc32/v4.21/bin/bin/../../lib/gcc/pic32c/8.3.1/../../../../pic32c/lib/thumb/v7e-m+fp/hard\libm-emfloat.a(floor.o)
                0x000038b8                floor

.text.StartTEMP_ADCTask%121
                0x00003988       0xc4
 .text.StartTEMP_ADCTask
                0x00003988       0xc4 build/default/production/_ext/1360937237/main.o
                0x00003988                StartTEMP_ADCTask

.text.prvAddCurrentTaskToDelayedList%122
                0x00003a4c       0xb0
 .text.prvAddCurrentTaskToDelayedList
                0x00003a4c       0xb0 build/default/production/_ext/404212886/FreeRTOS_tasks.o

.text.__pop_int%123
                0x00003afc       0xac
 .text.__pop_int
                0x00003afc       0xac c:/program files/microchip/xc32/v4.21/bin/bin/../../lib/gcc/pic32c/8.3.1/../../../../pic32c/lib/thumb/v7e-m+fp/hard\libc-musl.a(__pop_int.o)
                0x00003afc                __pop_int_needed
                0x00003afc                __pop_int

.text.vTaskSwitchContext%124
                0x00003ba8       0xa8
 .text.vTaskSwitchContext
                0x00003ba8       0xa8 build/default/production/_ext/404212886/FreeRTOS_tasks.o
                0x00003ba8                vTaskSwitchContext

.text.__fmt_d%125
                0x00003c50       0xa8
 .text.__fmt_d  0x00003c50       0xa8 c:/program files/microchip/xc32/v4.21/bin/bin/../../lib/gcc/pic32c/8.3.1/../../../../pic32c/lib/thumb/v7e-m+fp/hard\libc-musl.a(__fmt_d.o)
                0x00003c50                __fmt_d
                0x00003c50                __fmt_d_needed

.text.vTaskResume%126
                0x00003cf8       0xa4
 .text.vTaskResume
                0x00003cf8       0xa4 build/default/production/_ext/404212886/FreeRTOS_tasks.o
                0x00003cf8                vTaskResume

.text.StartMACHINE_STATETask%127
                0x00003d9c       0xa0
 .text.StartMACHINE_STATETask
                0x00003d9c       0xa0 build/default/production/_ext/1360937237/main.o
                0x00003d9c                StartMACHINE_STATETask

.text.StartPOWERBANK_MONITOR_Task%128
                0x00003e40       0x9c
 .text.StartPOWERBANK_MONITOR_Task
                0x00003e40       0x9c build/default/production/_ext/1360937237/main.o
                0x00003e40                StartPOWERBANK_MONITOR_Task

.text.EIC_Initialize%129
                0x00003edc       0x90
 .text.EIC_Initialize
                0x00003edc       0x90 build/default/production/_ext/60167341/plib_eic.o
                0x00003edc                EIC_Initialize

.text.xQueueGenericReset%130
                0x00003f6c       0x90
 .text.xQueueGenericReset
                0x00003f6c       0x90 build/default/production/_ext/404212886/queue.o
                0x00003f6c                xQueueGenericReset

.text.xTaskPriorityDisinherit%131
                0x00003ffc       0x8c
 .text.xTaskPriorityDisinherit
                0x00003ffc       0x8c build/default/production/_ext/404212886/FreeRTOS_tasks.o
                0x00003ffc                xTaskPriorityDisinherit

.text.SMOKE_DETECTION%132
                0x00004088       0x8c
 .text.SMOKE_DETECTION
                0x00004088       0x8c build/default/production/_ext/1360937237/main.o

.text.IMD_NOTIFICATION%133
                0x00004114       0x8c
 .text.IMD_NOTIFICATION
                0x00004114       0x8c build/default/production/_ext/1360937237/main.o

.text.SPD_DETECTION%134
                0x000041a0       0x8c
 .text.SPD_DETECTION
                0x000041a0       0x8c build/default/production/_ext/1360937237/main.o

.text.EMERGENCY_BTN%135
                0x0000422c       0x8c
 .text.EMERGENCY_BTN
                0x0000422c       0x8c build/default/production/_ext/1360937237/main.o

.text.StartRFID_SENDTask%136
                0x000042b8       0x8c
 .text.StartRFID_SENDTask
                0x000042b8       0x8c build/default/production/_ext/1360937237/main.o
                0x000042b8                StartRFID_SENDTask

.text.__write_buffered%137
                0x00004344       0x8a
 .text.__write_buffered
                0x00004344       0x8a c:/program files/microchip/xc32/v4.21/bin/bin/../../lib/gcc/pic32c/8.3.1/../../../../pic32c/lib/thumb/v7e-m+fp/hard\libc-musl.a(__stdio_write.o)
                0x00004344                __do_write

.text.Reset_Handler%138
                0x000043d0       0x88
 .text.Reset_Handler
                0x000043d0       0x88 build/default/production/_ext/1171490990/startup_xc32.o
                0x000043d0                Reset_Handler

.text.__pad%139
                0x00004458       0x80
 .text.__pad    0x00004458       0x80 c:/program files/microchip/xc32/v4.21/bin/bin/../../lib/gcc/pic32c/8.3.1/../../../../pic32c/lib/thumb/v7e-m+fp/hard\libc-musl.a(__printf_core.o)
                0x00004458                __pad

.text.prvUnlockQueue%140
                0x000044d8       0x7e
 .text.prvUnlockQueue
                0x000044d8       0x7e build/default/production/_ext/404212886/queue.o

.text.xQueueGenericSendFromISR%141
                0x00004556       0x7c
 .text.xQueueGenericSendFromISR
                0x00004556       0x7c build/default/production/_ext/404212886/queue.o
                0x00004556                xQueueGenericSendFromISR

.text.__pop_ptr%142
                0x000045d2       0x7c
 .text.__pop_ptr
                0x000045d2       0x7c c:/program files/microchip/xc32/v4.21/bin/bin/../../lib/gcc/pic32c/8.3.1/../../../../pic32c/lib/thumb/v7e-m+fp/hard\libc-musl.a(__pop_ptr.o)
                0x000045d2                __pop_ptr
                0x000045d2                __pop_ptr_needed

.text.SERCOM7_USART_ISR_TX_Handler%143
                0x00004650       0x78
 .text.SERCOM7_USART_ISR_TX_Handler
                0x00004650       0x78 build/default/production/_ext/504274921/plib_sercom7_usart.o

.text.SERCOM6_USART_ISR_TX_Handler%144
                0x000046c8       0x78
 .text.SERCOM6_USART_ISR_TX_Handler
                0x000046c8       0x78 build/default/production/_ext/504274921/plib_sercom6_usart.o

.text.SERCOM2_USART_ISR_TX_Handler%145
                0x00004740       0x78
 .text.SERCOM2_USART_ISR_TX_Handler
                0x00004740       0x78 build/default/production/_ext/504274921/plib_sercom2_usart.o

.text.SERCOM1_USART_ISR_TX_Handler%146
                0x000047b8       0x78
 .text.SERCOM1_USART_ISR_TX_Handler
                0x000047b8       0x78 build/default/production/_ext/504274921/plib_sercom1_usart.o

.text.__cvt_u%147
                0x00004830       0x78
 .text.__cvt_u  0x00004830       0x78 c:/program files/microchip/xc32/v4.21/bin/bin/../../lib/gcc/pic32c/8.3.1/../../../../pic32c/lib/thumb/v7e-m+fp/hard\libc-musl.a(__fmt_u.o)
                0x00004830                __cvt_u

.text.prvCopyDataToQueue%148
                0x000048a8       0x76
 .text.prvCopyDataToQueue
                0x000048a8       0x76 build/default/production/_ext/404212886/queue.o

.text.__stdio_write_buffered%149
                0x0000491e       0x76
 .text.__stdio_write_buffered
                0x0000491e       0x76 c:/program files/microchip/xc32/v4.21/bin/bin/../../lib/gcc/pic32c/8.3.1/../../../../pic32c/lib/thumb/v7e-m+fp/hard\libc-musl.a(__stdio_write.o)
                0x0000491e                __stdio_write_buffered

.text.vTaskStartScheduler%150
                0x00004994       0x74
 .text.vTaskStartScheduler
                0x00004994       0x74 build/default/production/_ext/404212886/FreeRTOS_tasks.o
                0x00004994                vTaskStartScheduler

.text.SERCOM1_USART_Write%151
                0x00004a08       0x74
 .text.SERCOM1_USART_Write
                0x00004a08       0x74 build/default/production/_ext/504274921/plib_sercom1_usart.o
                0x00004a08                SERCOM1_USART_Write

.text.__fmt_o%152
                0x00004a7c       0x72
 .text.__fmt_o  0x00004a7c       0x72 c:/program files/microchip/xc32/v4.21/bin/bin/../../lib/gcc/pic32c/8.3.1/../../../../pic32c/lib/thumb/v7e-m+fp/hard\libc-musl.a(__fmt_o.o)
                0x00004a7c                __fmt_o
                0x00004a7c                __fmt_o_needed

.text.prvIdleTask%153
                0x00004af0       0x70
 .text.prvIdleTask
                0x00004af0       0x70 build/default/production/_ext/404212886/FreeRTOS_tasks.o

.text.SYS_Initialize%154
                0x00004b60       0x6c
 .text.SYS_Initialize
                0x00004b60       0x6c build/default/production/_ext/1171490990/initialization.o
                0x00004b60                SYS_Initialize

.text.SERCOM7_USART_ISR_RX_Handler%155
                0x00004bcc       0x68
 .text.SERCOM7_USART_ISR_RX_Handler
                0x00004bcc       0x68 build/default/production/_ext/504274921/plib_sercom7_usart.o

.text.SERCOM6_USART_ISR_RX_Handler%156
                0x00004c34       0x68
 .text.SERCOM6_USART_ISR_RX_Handler
                0x00004c34       0x68 build/default/production/_ext/504274921/plib_sercom6_usart.o

.text.SERCOM2_USART_ISR_RX_Handler%157
                0x00004c9c       0x68
 .text.SERCOM2_USART_ISR_RX_Handler
                0x00004c9c       0x68 build/default/production/_ext/504274921/plib_sercom2_usart.o

.text.LIMIT_SWITCH%158
                0x00004d04       0x68
 .text.LIMIT_SWITCH
                0x00004d04       0x68 build/default/production/_ext/1360937237/main.o

.text.SERCOM1_USART_ISR_RX_Handler%159
                0x00004d6c       0x68
 .text.SERCOM1_USART_ISR_RX_Handler
                0x00004d6c       0x68 build/default/production/_ext/504274921/plib_sercom1_usart.o

.text.xPortPendSVHandler%160
                0x00004de0       0x64
 .text.xPortPendSVHandler
                0x00004de0       0x64 build/default/production/_ext/246609638/port.o
                0x00004de0                xPortPendSVHandler

.text.SERCOM3_I2C_Initialize%161
                0x00004e44       0x60
 .text.SERCOM3_I2C_Initialize
                0x00004e44       0x60 build/default/production/_ext/508257091/plib_sercom3_i2c_master.o
                0x00004e44                SERCOM3_I2C_Initialize

.text.xTaskCheckForTimeOut%162
                0x00004ea4       0x60
 .text.xTaskCheckForTimeOut
                0x00004ea4       0x60 build/default/production/_ext/404212886/FreeRTOS_tasks.o
                0x00004ea4                xTaskCheckForTimeOut

.text.__pic32c_data_initialization_impl%163
                0x00004f04       0x60
 .text.__pic32c_data_initialization_impl
                0x00004f04       0x60 c:/program files/microchip/xc32/v4.21/bin/bin/../../lib/gcc/pic32c/8.3.1/../../../../pic32c/lib/thumb/v7e-m+fp/hard\libpic32c.a(data_init_0_1.o)
                0x00004f04                __copy_needed
                0x00004f04                __pic32c_data_initialization_impl

.text.__stdio_read%164
                0x00004f64       0x60
 .text.__stdio_read
                0x00004f64       0x60 c:/program files/microchip/xc32/v4.21/bin/bin/../../lib/gcc/pic32c/8.3.1/../../../../pic32c/lib/thumb/v7e-m+fp/hard\libc-musl.a(__stdio_read.o)
                0x00004f64                __stdio_read

.text.ADC1_Initialize%165
                0x00004fc4       0x5c
 .text.ADC1_Initialize
                0x00004fc4       0x5c build/default/production/_ext/60163342/plib_adc1.o
                0x00004fc4                ADC1_Initialize

.text.ADC0_Initialize%166
                0x00005020       0x5c
 .text.ADC0_Initialize
                0x00005020       0x5c build/default/production/_ext/60163342/plib_adc0.o
                0x00005020                ADC0_Initialize

.text.prvSampleTimeNow%167
                0x0000507c       0x5c
 .text.prvSampleTimeNow
                0x0000507c       0x5c build/default/production/_ext/404212886/timers.o

.text.__libc_start_init%168
                0x000050d8       0x5c
 .text.__libc_start_init
                0x000050d8       0x5c c:/program files/microchip/xc32/v4.21/bin/bin/../../lib/gcc/pic32c/8.3.1/../../../../pic32c/lib/thumb/v7e-m+fp/hard\libc-musl.a(__libc_start_main.o)
                0x000050d8                __libc_init_array

.rodata%169     0x00005134       0x5c
 .rodata        0x00005134       0x5c c:/program files/microchip/xc32/v4.21/bin/bin/../../lib/gcc/pic32c/8.3.1/../../../../pic32c/lib/thumb/v7e-m+fp/hard\libc-musl.a(malloc.o)

.text.__stdio_close_rw%170
                0x00005190       0x5c
 .text.__stdio_close_rw
                0x00005190       0x5c c:/program files/microchip/xc32/v4.21/bin/bin/../../lib/gcc/pic32c/8.3.1/../../../../pic32c/lib/thumb/v7e-m+fp/hard\libc-musl.a(__stdio_close.o)
                0x00005190                __stdio_close_rw

.text.SERCOM7_USART_InterruptHandler%171
                0x000051ec       0x58
 .text.SERCOM7_USART_InterruptHandler
                0x000051ec       0x58 build/default/production/_ext/504274921/plib_sercom7_usart.o
                0x000051ec                SERCOM7_USART_InterruptHandler

.text.SERCOM6_USART_InterruptHandler%172
                0x00005244       0x58
 .text.SERCOM6_USART_InterruptHandler
                0x00005244       0x58 build/default/production/_ext/504274921/plib_sercom6_usart.o
                0x00005244                SERCOM6_USART_InterruptHandler

.text.SERCOM2_USART_InterruptHandler%173
                0x0000529c       0x58
 .text.SERCOM2_USART_InterruptHandler
                0x0000529c       0x58 build/default/production/_ext/504274921/plib_sercom2_usart.o
                0x0000529c                SERCOM2_USART_InterruptHandler

.text.prvInsertBlockIntoFreeList%174
                0x000052f4       0x58
 .text.prvInsertBlockIntoFreeList
                0x000052f4       0x58 build/default/production/_ext/1665200909/heap_4.o

.text.SERCOM1_USART_InterruptHandler%175
                0x0000534c       0x58
 .text.SERCOM1_USART_InterruptHandler
                0x0000534c       0x58 build/default/production/_ext/504274921/plib_sercom1_usart.o
                0x0000534c                SERCOM1_USART_InterruptHandler

.text.__fmt_s%176
                0x000053a4       0x58
 .text.__fmt_s  0x000053a4       0x58 c:/program files/microchip/xc32/v4.21/bin/bin/../../lib/gcc/pic32c/8.3.1/../../../../pic32c/lib/thumb/v7e-m+fp/hard\libc-musl.a(__fmt_s.o)
                0x000053a4                __fmt_s
                0x000053a4                __fmt_0_needed
                0x000053a4                __fmt_s_needed

.text.unbin%177
                0x000053fc       0x58
 .text.unbin    0x000053fc       0x58 c:/program files/microchip/xc32/v4.21/bin/bin/../../lib/gcc/pic32c/8.3.1/../../../../pic32c/lib/thumb/v7e-m+fp/hard\libc-musl.a(malloc.o)

.text.__fmt_u%178
                0x00005454       0x56
 .text.__fmt_u  0x00005454       0x56 c:/program files/microchip/xc32/v4.21/bin/bin/../../lib/gcc/pic32c/8.3.1/../../../../pic32c/lib/thumb/v7e-m+fp/hard\libc-musl.a(__fmt_u.o)
                0x00005454                __fmt_u_needed
                0x00005454                __fmt_u

.text.SERCOM7_USART_Initialize%179
                0x000054ac       0x54
 .text.SERCOM7_USART_Initialize
                0x000054ac       0x54 build/default/production/_ext/504274921/plib_sercom7_usart.o
                0x000054ac                SERCOM7_USART_Initialize

.text.SERCOM6_USART_Initialize%180
                0x00005500       0x54
 .text.SERCOM6_USART_Initialize
                0x00005500       0x54 build/default/production/_ext/504274921/plib_sercom6_usart.o
                0x00005500                SERCOM6_USART_Initialize

.text.SERCOM2_USART_Initialize%181
                0x00005554       0x54
 .text.SERCOM2_USART_Initialize
                0x00005554       0x54 build/default/production/_ext/504274921/plib_sercom2_usart.o
                0x00005554                SERCOM2_USART_Initialize

.text.SERCOM1_USART_Initialize%182
                0x000055a8       0x54
 .text.SERCOM1_USART_Initialize
                0x000055a8       0x54 build/default/production/_ext/504274921/plib_sercom1_usart.o
                0x000055a8                SERCOM1_USART_Initialize

.text.SERCOM5_USART_Read%183
                0x000055fc       0x50
 .text.SERCOM5_USART_Read
                0x000055fc       0x50 build/default/production/_ext/504274921/plib_sercom5_usart.o
                0x000055fc                SERCOM5_USART_Read

.text.vPortFree%184
                0x0000564c       0x50
 .text.vPortFree
                0x0000564c       0x50 build/default/production/_ext/1665200909/heap_4.o
                0x0000564c                vPortFree

.text.prvCheckForValidListAndQueue%185
                0x0000569c       0x50
 .text.prvCheckForValidListAndQueue
                0x0000569c       0x50 build/default/production/_ext/404212886/timers.o

.text.vQueueWaitForMessageRestricted%186
                0x000056ec       0x4e
 .text.vQueueWaitForMessageRestricted
                0x000056ec       0x4e build/default/production/_ext/404212886/queue.o
                0x000056ec                vQueueWaitForMessageRestricted

.text.__overflow%187
                0x0000573a       0x4e
 .text.__overflow
                0x0000573a       0x4e c:/program files/microchip/xc32/v4.21/bin/bin/../../lib/gcc/pic32c/8.3.1/../../../../pic32c/lib/thumb/v7e-m+fp/hard\libc-musl.a(__overflow.o)
                0x0000573a                __overflow

.text.SERCOM3_I2C_InitiateTransfer%188
                0x00005788       0x4c
 .text.SERCOM3_I2C_InitiateTransfer
                0x00005788       0x4c build/default/production/_ext/508257091/plib_sercom3_i2c_master.o

.text.xTimerGenericCommand%189
                0x000057d4       0x4c
 .text.xTimerGenericCommand
                0x000057d4       0x4c build/default/production/_ext/404212886/timers.o
                0x000057d4                xTimerGenericCommand

.text.__aeabi_d2f%190
                0x00005820       0x4c
 .text.__aeabi_d2f
                0x00005820       0x4c c:/program files/microchip/xc32/v4.21/bin/bin/../../lib/gcc/pic32c/8.3.1/../../../../pic32c/lib/thumb/v7e-m+fp/hard\libm-emfloat.a(__aeabi_d2f.o)
                0x00005820                __aeabi_d2f

.text.setvbuf%191
                0x0000586c       0x4c
 .text.setvbuf  0x0000586c       0x4c c:/program files/microchip/xc32/v4.21/bin/bin/../../lib/gcc/pic32c/8.3.1/../../../../pic32c/lib/thumb/v7e-m+fp/hard\libc-musl.a(setvbuf.o)
                0x0000586c                setvbuf

.text.xQueueGenericCreate%192
                0x000058b8       0x4a
 .text.xQueueGenericCreate
                0x000058b8       0x4a build/default/production/_ext/404212886/queue.o
                0x000058b8                xQueueGenericCreate

.text.__aeabi_d2iz%193
                0x00005902       0x4a
 .text.__aeabi_d2iz
                0x00005902       0x4a c:/program files/microchip/xc32/v4.21/bin/bin/../../lib/gcc/pic32c/8.3.1/../../../../pic32c/lib/thumb/v7e-m+fp/hard\libm-emfloat.a(__aeabi_d2iz.o)
                0x00005902                __aeabi_d2iz

.text.xPortStartScheduler%194
                0x0000594c       0x48
 .text.xPortStartScheduler
                0x0000594c       0x48 build/default/production/_ext/246609638/port.o
                0x0000594c                xPortStartScheduler

.text.prvInsertTimerInActiveList%195
                0x00005994       0x48
 .text.prvInsertTimerInActiveList
                0x00005994       0x48 build/default/production/_ext/404212886/timers.o

.text.xTimerCreate%196
                0x000059dc       0x46
 .text.xTimerCreate
                0x000059dc       0x46 build/default/production/_ext/404212886/timers.o
                0x000059dc                xTimerCreate

.text.atoi%197  0x00005a22       0x46
 .text.atoi     0x00005a22       0x46 c:/program files/microchip/xc32/v4.21/bin/bin/../../lib/gcc/pic32c/8.3.1/../../../../pic32c/lib/thumb/v7e-m+fp/hard\libc-musl.a(atoi.o)
                0x00005a22                atoi

.text.SERCOM5_USART_Write%198
                0x00005a68       0x44
 .text.SERCOM5_USART_Write
                0x00005a68       0x44 build/default/production/_ext/504274921/plib_sercom5_usart.o
                0x00005a68                SERCOM5_USART_Write

.text.RED_t1%199
                0x00005aac       0x44
 .text.RED_t1   0x00005aac       0x44 build/default/production/_ext/1360937237/main.o
                0x00005aac                RED_t1

.text%200       0x00005af0       0x40
 .text          0x00005af0       0x40 c:/program files/microchip/xc32/v4.21/bin/bin/../../lib/gcc/pic32c/8.3.1/thumb/v7e-m+fp/hard/crtbegin.o

.text.SERCOM7_USART_Read%201
                0x00005b30       0x40
 .text.SERCOM7_USART_Read
                0x00005b30       0x40 build/default/production/_ext/504274921/plib_sercom7_usart.o
                0x00005b30                SERCOM7_USART_Read

.text.SERCOM6_USART_Read%202
                0x00005b70       0x40
 .text.SERCOM6_USART_Read
                0x00005b70       0x40 build/default/production/_ext/504274921/plib_sercom6_usart.o
                0x00005b70                SERCOM6_USART_Read

.text.SERCOM2_USART_Read%203
                0x00005bb0       0x40
 .text.SERCOM2_USART_Read
                0x00005bb0       0x40 build/default/production/_ext/504274921/plib_sercom2_usart.o
                0x00005bb0                SERCOM2_USART_Read

.text.prvProcessExpiredTimer%204
                0x00005bf0       0x40
 .text.prvProcessExpiredTimer
                0x00005bf0       0x40 build/default/production/_ext/404212886/timers.o

.text.xTimerCreateTimerTask%205
                0x00005c30       0x40
 .text.xTimerCreateTimerTask
                0x00005c30       0x40 build/default/production/_ext/404212886/timers.o
                0x00005c30                xTimerCreateTimerTask

.text.StartESP_RECEIVETask%206
                0x00005c70       0x40
 .text.StartESP_RECEIVETask
                0x00005c70       0x40 build/default/production/_ext/1360937237/main.o
                0x00005c70                StartESP_RECEIVETask

.text.GREEN_BLUE%207
                0x00005cb0       0x40
 .text.GREEN_BLUE
                0x00005cb0       0x40 build/default/production/_ext/1360937237/main.o
                0x00005cb0                GREEN_BLUE

.text.GREEN_BLUE1%208
                0x00005cf0       0x40
 .text.GREEN_BLUE1
                0x00005cf0       0x40 build/default/production/_ext/1360937237/main.o
                0x00005cf0                GREEN_BLUE1

.text.RED_t%209
                0x00005d30       0x40
 .text.RED_t    0x00005d30       0x40 build/default/production/_ext/1360937237/main.o
                0x00005d30                RED_t

.text.SERCOM1_USART_Read%210
                0x00005d70       0x40
 .text.SERCOM1_USART_Read
                0x00005d70       0x40 build/default/production/_ext/504274921/plib_sercom1_usart.o
                0x00005d70                SERCOM1_USART_Read

.text.adjust_size%211
                0x00005db0       0x40
 .text.adjust_size
                0x00005db0       0x40 c:/program files/microchip/xc32/v4.21/bin/bin/../../lib/gcc/pic32c/8.3.1/../../../../pic32c/lib/thumb/v7e-m+fp/hard\libc-musl.a(malloc.o)

.text.__putc%212
                0x00005df0       0x3e
 .text.__putc   0x00005df0       0x3e c:/program files/microchip/xc32/v4.21/bin/bin/../../lib/gcc/pic32c/8.3.1/../../../../pic32c/lib/thumb/v7e-m+fp/hard\libc-musl.a(__putc.o)
                0x00005df0                __putc_needed
                0x00005df0                __putc

.text.TCC4_PWMInitialize%213
                0x00005e30       0x3c
 .text.TCC4_PWMInitialize
                0x00005e30       0x3c build/default/production/_ext/60181570/plib_tcc4.o
                0x00005e30                TCC4_PWMInitialize

.text.vTaskPlaceOnEventListRestricted%214
                0x00005e6c       0x3c
 .text.vTaskPlaceOnEventListRestricted
                0x00005e6c       0x3c build/default/production/_ext/404212886/FreeRTOS_tasks.o
                0x00005e6c                vTaskPlaceOnEventListRestricted

.text.__aeabi_dcmple%215
                0x00005ea8       0x3c
 .text.__aeabi_dcmple
                0x00005ea8       0x3c c:/program files/microchip/xc32/v4.21/bin/bin/../../lib/gcc/pic32c/8.3.1/../../../../pic32c/lib/thumb/v7e-m+fp/hard\libm-emfloat.a(__aeabi_dcmple.o)
                0x00005ea8                __aeabi_dcmple

.text.__out%216
                0x00005ee4       0x3a
 .text.__out    0x00005ee4       0x3a c:/program files/microchip/xc32/v4.21/bin/bin/../../lib/gcc/pic32c/8.3.1/../../../../pic32c/lib/thumb/v7e-m+fp/hard\libc-musl.a(__out.o)
                0x00005ee4                __out
                0x00005ee4                __out_needed

.text.SERCOM7_USART_ISR_ERR_Handler%217
                0x00005f20       0x38
 .text.SERCOM7_USART_ISR_ERR_Handler
                0x00005f20       0x38 build/default/production/_ext/504274921/plib_sercom7_usart.o

.text.SERCOM6_USART_ISR_ERR_Handler%218
                0x00005f58       0x38
 .text.SERCOM6_USART_ISR_ERR_Handler
                0x00005f58       0x38 build/default/production/_ext/504274921/plib_sercom6_usart.o

.text.SERCOM2_USART_ISR_ERR_Handler%219
                0x00005f90       0x38
 .text.SERCOM2_USART_ISR_ERR_Handler
                0x00005f90       0x38 build/default/production/_ext/504274921/plib_sercom2_usart.o

.text.SERCOM1_USART_ISR_ERR_Handler%220
                0x00005fc8       0x38
 .text.SERCOM1_USART_ISR_ERR_Handler
                0x00005fc8       0x38 build/default/production/_ext/504274921/plib_sercom1_usart.o

.text.__fmt_state%221
                0x00006000       0x38
 .text.__fmt_state
                0x00006000       0x38 c:/program files/microchip/xc32/v4.21/bin/bin/../../lib/gcc/pic32c/8.3.1/../../../../pic32c/lib/thumb/v7e-m+fp/hard\libc-musl.a(__printf_core.o)
                0x00006000                __fmt_state

.text.__putc_unbuffered%222
                0x00006038       0x38
 .text.__putc_unbuffered
                0x00006038       0x38 c:/program files/microchip/xc32/v4.21/bin/bin/../../lib/gcc/pic32c/8.3.1/../../../../pic32c/lib/thumb/v7e-m+fp/hard\libc-musl.a(putc.o)
                0x00006038                __putc_unbuffered

.text.bin_index%223
                0x00006070       0x38
 .text.bin_index
                0x00006070       0x38 c:/program files/microchip/xc32/v4.21/bin/bin/../../lib/gcc/pic32c/8.3.1/../../../../pic32c/lib/thumb/v7e-m+fp/hard\libc-musl.a(malloc.o)

.text.__aeabi_dcmpgt%224
                0x000060a8       0x38
 .text.__aeabi_dcmpgt
                0x000060a8       0x38 c:/program files/microchip/xc32/v4.21/bin/bin/../../lib/gcc/pic32c/8.3.1/../../../../pic32c/lib/thumb/v7e-m+fp/hard\libm-emfloat.a(__aeabi_dcmpgt.o)
                0x000060a8                __aeabi_dcmpgt

.text.__aeabi_dcmplt%225
                0x000060e0       0x38
 .text.__aeabi_dcmplt
                0x000060e0       0x38 c:/program files/microchip/xc32/v4.21/bin/bin/../../lib/gcc/pic32c/8.3.1/../../../../pic32c/lib/thumb/v7e-m+fp/hard\libm-emfloat.a(__aeabi_dcmplt.o)
                0x000060e0                __aeabi_dcmplt

.text.SERCOM5_USART_Initialize%226
                0x00006118       0x34
 .text.SERCOM5_USART_Initialize
                0x00006118       0x34 build/default/production/_ext/504274921/plib_sercom5_usart.o
                0x00006118                SERCOM5_USART_Initialize

.text.TC0_CompareInitialize%227
                0x0000614c       0x34
 .text.TC0_CompareInitialize
                0x0000614c       0x34 build/default/production/_ext/829342655/plib_tc0.o
                0x0000614c                TC0_CompareInitialize

.text.TC1_CompareInitialize%228
                0x00006180       0x34
 .text.TC1_CompareInitialize
                0x00006180       0x34 build/default/production/_ext/829342655/plib_tc1.o
                0x00006180                TC1_CompareInitialize

.text.TC5_CompareInitialize%229
                0x000061b4       0x34
 .text.TC5_CompareInitialize
                0x000061b4       0x34 build/default/production/_ext/829342655/plib_tc5.o
                0x000061b4                TC5_CompareInitialize

.text.vListInsert%230
                0x000061e8       0x34
 .text.vListInsert
                0x000061e8       0x34 build/default/production/_ext/404212886/list.o
                0x000061e8                vListInsert

.text.vTaskDelay%231
                0x0000621c       0x34
 .text.vTaskDelay
                0x0000621c       0x34 build/default/production/_ext/404212886/FreeRTOS_tasks.o
                0x0000621c                vTaskDelay

.text.PHASE2_NOTIFICATION%232
                0x00006250       0x34
 .text.PHASE2_NOTIFICATION
                0x00006250       0x34 build/default/production/_ext/1360937237/main.o

.text.PHASE1_NOTIFICATION%233
                0x00006284       0x34
 .text.PHASE1_NOTIFICATION
                0x00006284       0x34 build/default/production/_ext/1360937237/main.o

.text.__aeabi_f2d%234
                0x000062b8       0x34
 .text.__aeabi_f2d
                0x000062b8       0x34 c:/program files/microchip/xc32/v4.21/bin/bin/../../lib/gcc/pic32c/8.3.1/../../../../pic32c/lib/thumb/v7e-m+fp/hard\libm-emfloat.a(__aeabi_f2d.o)
                0x000062b8                __aeabi_f2d

.text.__aeabi_dcmpeq%235
                0x000062ec       0x32
 .text.__aeabi_dcmpeq
                0x000062ec       0x32 c:/program files/microchip/xc32/v4.21/bin/bin/../../lib/gcc/pic32c/8.3.1/../../../../pic32c/lib/thumb/v7e-m+fp/hard\libm-emfloat.a(__aeabi_dcmpeq.o)
                0x000062ec                __aeabi_dcmpeq

.text.EIC_CallbackRegister%236
                0x00006320       0x30
 .text.EIC_CallbackRegister
                0x00006320       0x30 build/default/production/_ext/60167341/plib_eic.o
                0x00006320                EIC_CallbackRegister

.text.SERCOM7_USART_ErrorClear%237
                0x00006350       0x30
 .text.SERCOM7_USART_ErrorClear
                0x00006350       0x30 build/default/production/_ext/504274921/plib_sercom7_usart.o

.text.SERCOM6_USART_ErrorClear%238
                0x00006380       0x30
 .text.SERCOM6_USART_ErrorClear
                0x00006380       0x30 build/default/production/_ext/504274921/plib_sercom6_usart.o

.text.SERCOM2_USART_ErrorClear%239
                0x000063b0       0x30
 .text.SERCOM2_USART_ErrorClear
                0x000063b0       0x30 build/default/production/_ext/504274921/plib_sercom2_usart.o

.text.SERCOM5_USART_ErrorClear%240
                0x000063e0       0x30
 .text.SERCOM5_USART_ErrorClear
                0x000063e0       0x30 build/default/production/_ext/504274921/plib_sercom5_usart.o

.text.SERCOM1_USART_ErrorClear%241
                0x00006410       0x30
 .text.SERCOM1_USART_ErrorClear
                0x00006410       0x30 build/default/production/_ext/504274921/plib_sercom1_usart.o

.text.__readv%242
                0x00006440       0x30
 .text.__readv  0x00006440       0x30 c:/program files/microchip/xc32/v4.21/bin/bin/../../lib/gcc/pic32c/8.3.1/../../../../pic32c/lib/thumb/v7e-m+fp/hard\libc-musl.a(readv.o)
                0x00006440                readv

.text.alloc_rev%243
                0x00006470       0x30
 .text.alloc_rev
                0x00006470       0x30 c:/program files/microchip/xc32/v4.21/bin/bin/../../lib/gcc/pic32c/8.3.1/../../../../pic32c/lib/thumb/v7e-m+fp/hard\libc-musl.a(malloc.o)

.text.__writev%244
                0x000064a0       0x30
 .text.__writev
                0x000064a0       0x30 c:/program files/microchip/xc32/v4.21/bin/bin/../../lib/gcc/pic32c/8.3.1/../../../../pic32c/lib/thumb/v7e-m+fp/hard\libc-musl.a(writev.o)
                0x000064a0                writev

.text%245       0x000064d0       0x30
 .text          0x000064d0       0x30 c:/program files/microchip/xc32/v4.21/bin/bin/../../lib/gcc/pic32c/8.3.1/thumb/v7e-m+fp/hard\libgcc.a(_aeabi_uldivmod.o)
                0x000064d0                __aeabi_uldivmod

.text.trim%246  0x00006500       0x2e
 .text.trim     0x00006500       0x2e c:/program files/microchip/xc32/v4.21/bin/bin/../../lib/gcc/pic32c/8.3.1/../../../../pic32c/lib/thumb/v7e-m+fp/hard\libc-musl.a(malloc.o)

.text.pxPortInitialiseStack%247
                0x00006530       0x2c
 .text.pxPortInitialiseStack
                0x00006530       0x2c build/default/production/_ext/246609638/port.o
                0x00006530                pxPortInitialiseStack

.text.xPortSysTickHandler%248
                0x0000655c       0x2c
 .text.xPortSysTickHandler
                0x0000655c       0x2c build/default/production/_ext/246609638/port.o
                0x0000655c                xPortSysTickHandler

.text.alloc_fwd%249
                0x00006588       0x2c
 .text.alloc_fwd
                0x00006588       0x2c c:/program files/microchip/xc32/v4.21/bin/bin/../../lib/gcc/pic32c/8.3.1/../../../../pic32c/lib/thumb/v7e-m+fp/hard\libc-musl.a(malloc.o)

.text.fma%250   0x000065b4       0x2c
 .text.fma      0x000065b4       0x2c c:/program files/microchip/xc32/v4.21/bin/bin/../../lib/gcc/pic32c/8.3.1/../../../../pic32c/lib/thumb/v7e-m+fp/hard\libm-emfloat.a(fma.o)
                0x000065b4                fma

.text._sbrk%251
                0x000065e0       0x2c
 .text._sbrk    0x000065e0       0x2c c:/program files/microchip/xc32/v4.21/bin/bin/../../lib/gcc/pic32c/8.3.1/../../../../pic32c/lib/thumb/v7e-m+fp/hard\libpic32c.a(sbrk.o)
                0x000065e0                _sbrk

.text.__pop_float%252
                0x0000660c       0x2a
 .text.__pop_float
                0x0000660c       0x2a c:/program files/microchip/xc32/v4.21/bin/bin/../../lib/gcc/pic32c/8.3.1/../../../../pic32c/lib/thumb/v7e-m+fp/hard\libc-musl.a(__pop_float.o)
                0x0000660c                __pop_float_needed
                0x0000660c                __pop_float

.text.fwrite%253
                0x00006636       0x2a
 .text.fwrite   0x00006636       0x2a c:/program files/microchip/xc32/v4.21/bin/bin/../../lib/gcc/pic32c/8.3.1/../../../../pic32c/lib/thumb/v7e-m+fp/hard\libc-musl.a(fwrite.o)
                0x00006636                fwrite
                0x00006636                fwrite_unlocked

.text.EIC_EXTINT_11_InterruptHandler%254
                0x00006660       0x28
 .text.EIC_EXTINT_11_InterruptHandler
                0x00006660       0x28 build/default/production/_ext/60167341/plib_eic.o
                0x00006660                EIC_EXTINT_11_InterruptHandler

.text.prvPortStartFirstTask%255
                0x00006688       0x28
 .text.prvPortStartFirstTask
                0x00006688       0x28 build/default/production/_ext/246609638/port.o

.text.vPortSetupTimerInterrupt%256
                0x000066b0       0x28
 .text.vPortSetupTimerInterrupt
                0x000066b0       0x28 build/default/production/_ext/246609638/port.o
                0x000066b0                vPortSetupTimerInterrupt

.text.prvResetNextTaskUnblockTime%257
                0x000066d8       0x28
 .text.prvResetNextTaskUnblockTime
                0x000066d8       0x28 build/default/production/_ext/404212886/FreeRTOS_tasks.o

.text.StartHMI_RECEIVETask%258
                0x00006700       0x28
 .text.StartHMI_RECEIVETask
                0x00006700       0x28 build/default/production/_ext/1360937237/main.o
                0x00006700                StartHMI_RECEIVETask

.text.puts%259  0x00006728       0x28
 .text.puts     0x00006728       0x28 c:/program files/microchip/xc32/v4.21/bin/bin/../../lib/gcc/pic32c/8.3.1/../../../../pic32c/lib/thumb/v7e-m+fp/hard\libc-musl.a(puts.o)
                0x00006728                puts

.text.__towrite_rw%260
                0x00006750       0x28
 .text.__towrite_rw
                0x00006750       0x28 c:/program files/microchip/xc32/v4.21/bin/bin/../../lib/gcc/pic32c/8.3.1/../../../../pic32c/lib/thumb/v7e-m+fp/hard\libc-musl.a(__towrite_rw.o)
                0x00006750                __towrite_rw
                0x00006750                __towrite_rw_needed

.text.prvReloadTimer%261
                0x00006778       0x26
 .text.prvReloadTimer
                0x00006778       0x26 build/default/production/_ext/404212886/timers.o

.text.ADC0_ChannelSelect%262
                0x000067a0       0x24
 .text.ADC0_ChannelSelect
                0x000067a0       0x24 build/default/production/_ext/60163342/plib_adc0.o
                0x000067a0                ADC0_ChannelSelect

.text.ADC0_ConversionStatusGet%263
                0x000067c4       0x24
 .text.ADC0_ConversionStatusGet
                0x000067c4       0x24 build/default/production/_ext/60163342/plib_adc0.o
                0x000067c4                ADC0_ConversionStatusGet

.text.EIC_EXTINT_8_InterruptHandler%264
                0x000067e8       0x24
 .text.EIC_EXTINT_8_InterruptHandler
                0x000067e8       0x24 build/default/production/_ext/60167341/plib_eic.o
                0x000067e8                EIC_EXTINT_8_InterruptHandler

.text.EIC_EXTINT_9_InterruptHandler%265
                0x0000680c       0x24
 .text.EIC_EXTINT_9_InterruptHandler
                0x0000680c       0x24 build/default/production/_ext/60167341/plib_eic.o
                0x0000680c                EIC_EXTINT_9_InterruptHandler

.text.EIC_EXTINT_10_InterruptHandler%266
                0x00006830       0x24
 .text.EIC_EXTINT_10_InterruptHandler
                0x00006830       0x24 build/default/production/_ext/60167341/plib_eic.o
                0x00006830                EIC_EXTINT_10_InterruptHandler

.text.vPortSVCHandler%267
                0x00006860       0x24
 .text.vPortSVCHandler
                0x00006860       0x24 build/default/production/_ext/246609638/port.o
                0x00006860                vPortSVCHandler

.text.uxListRemove%268
                0x00006884       0x24
 .text.uxListRemove
                0x00006884       0x24 build/default/production/_ext/404212886/list.o
                0x00006884                uxListRemove

.text.prvCopyDataFromQueue%269
                0x000068a8       0x24
 .text.prvCopyDataFromQueue
                0x000068a8       0x24 build/default/production/_ext/404212886/queue.o

.text.RGB2_AVAILABLITY_t%270
                0x000068cc       0x24
 .text.RGB2_AVAILABLITY_t
                0x000068cc       0x24 build/default/production/_ext/1360937237/main.o

.text.RGB1_AVAILABLITY_t%271
                0x000068f0       0x24
 .text.RGB1_AVAILABLITY_t
                0x000068f0       0x24 build/default/production/_ext/1360937237/main.o

.text.__wrap_printf%272
                0x00006914       0x24
 .text.__wrap_printf
                0x00006914       0x24 c:/program files/microchip/xc32/v4.21/bin/bin/../../lib/gcc/pic32c/8.3.1/../../../../pic32c/lib/thumb/v7e-m+fp/hard\libc-musl.a(__sio_printf_dfoux.o)
                0x00006914                _printf_cdeEfFnopuxX
                0x00006914                _dprintf_cdfFgGnopuxX
                0x00006914                __printf_fgG
                0x00006914                _printf_cdfFnopuxX
                0x00006914                _printf_cdgGnopuxX
                0x00006914                _dprintf_cdeEnopuxX
                0x00006914                _printf_cdeEgGnopuxX
                0x00006914                __printf_di
                0x00006914                _printf_cdeEnopuxX
                0x00006914                _dprintf_cdfFnopuxX
                0x00006914                _printf_cdfFgGnopuxX
                0x00006914                _dprintf_cdeEfFnopuxX
                0x00006914                _dprintf_cdeEgGnopuxX
                0x00006914                _printf_cdeEfFgGnopuxX
                0x00006914                _dprintf_cdgGnopuxX
                0x00006914                _dprintf_cdeEfFgGnopuxX

.text.fputs%273
                0x00006938       0x22
 .text.fputs    0x00006938       0x22 c:/program files/microchip/xc32/v4.21/bin/bin/../../lib/gcc/pic32c/8.3.1/../../../../pic32c/lib/thumb/v7e-m+fp/hard\libc-musl.a(fputs.o)
                0x00006938                fputs
                0x00006938                fputs_unlocked

.text.EIC_EXTINT_1_InterruptHandler%274
                0x0000695c       0x20
 .text.EIC_EXTINT_1_InterruptHandler
                0x0000695c       0x20 build/default/production/_ext/60167341/plib_eic.o
                0x0000695c                EIC_EXTINT_1_InterruptHandler

.text.EIC_EXTINT_2_InterruptHandler%275
                0x0000697c       0x20
 .text.EIC_EXTINT_2_InterruptHandler
                0x0000697c       0x20 build/default/production/_ext/60167341/plib_eic.o
                0x0000697c                EIC_EXTINT_2_InterruptHandler

.text.EIC_EXTINT_5_InterruptHandler%276
                0x0000699c       0x20
 .text.EIC_EXTINT_5_InterruptHandler
                0x0000699c       0x20 build/default/production/_ext/60167341/plib_eic.o
                0x0000699c                EIC_EXTINT_5_InterruptHandler

.text.EIC_EXTINT_6_InterruptHandler%277
                0x000069bc       0x20
 .text.EIC_EXTINT_6_InterruptHandler
                0x000069bc       0x20 build/default/production/_ext/60167341/plib_eic.o
                0x000069bc                EIC_EXTINT_6_InterruptHandler

.text.EIC_EXTINT_7_InterruptHandler%278
                0x000069dc       0x20
 .text.EIC_EXTINT_7_InterruptHandler
                0x000069dc       0x20 build/default/production/_ext/60167341/plib_eic.o
                0x000069dc                EIC_EXTINT_7_InterruptHandler

.text.prvTaskExitError%279
                0x000069fc       0x20
 .text.prvTaskExitError
                0x000069fc       0x20 build/default/production/_ext/246609638/port.o

.text.vPortEnterCritical%280
                0x00006a1c       0x20
 .text.vPortEnterCritical
                0x00006a1c       0x20 build/default/production/_ext/246609638/port.o
                0x00006a1c                vPortEnterCritical

.text.xTaskGetSchedulerState%281
                0x00006a3c       0x20
 .text.xTaskGetSchedulerState
                0x00006a3c       0x20 build/default/production/_ext/404212886/FreeRTOS_tasks.o
                0x00006a3c                xTaskGetSchedulerState

.text.StartESP_SENDTask%282
                0x00006a5c       0x20
 .text.StartESP_SENDTask
                0x00006a5c       0x20 build/default/production/_ext/1360937237/main.o
                0x00006a5c                StartESP_SENDTask

.text.StartAC_DC_METER_SENDTask%283
                0x00006a7c       0x20
 .text.StartAC_DC_METER_SENDTask
                0x00006a7c       0x20 build/default/production/_ext/1360937237/main.o
                0x00006a7c                StartAC_DC_METER_SENDTask

.text.StartHMI_SENDTask%284
                0x00006a9c       0x20
 .text.StartHMI_SENDTask
                0x00006a9c       0x20 build/default/production/_ext/1360937237/main.o
                0x00006a9c                StartHMI_SENDTask

.text.lock_bin%285
                0x00006abc       0x20
 .text.lock_bin
                0x00006abc       0x20 c:/program files/microchip/xc32/v4.21/bin/bin/../../lib/gcc/pic32c/8.3.1/../../../../pic32c/lib/thumb/v7e-m+fp/hard\libc-musl.a(malloc.o)

.text.read%286  0x00006adc       0x1e
 .text.read     0x00006adc       0x1e build/default/production/_ext/163028504/xc32_monitor.o
                0x00006adc                read

.text.write%287
                0x00006afa       0x1c
 .text.write    0x00006afa       0x1c build/default/production/_ext/163028504/xc32_monitor.o
                0x00006afa                write

.text.vTaskPlaceOnEventList%288
                0x00006b18       0x1c
 .text.vTaskPlaceOnEventList
                0x00006b18       0x1c build/default/production/_ext/404212886/FreeRTOS_tasks.o
                0x00006b18                vTaskPlaceOnEventList

.rodata%289     0x00006b34       0x1c
 .rodata        0x00006b34       0x1c c:/program files/microchip/xc32/v4.21/bin/bin/../../lib/gcc/pic32c/8.3.1/../../../../pic32c/lib/thumb/v7e-m+fp/hard\libc-musl.a(__printf_core.o)

.text.__vfprintf%290
                0x00006b50       0x1c
 .text.__vfprintf
                0x00006b50       0x1c c:/program files/microchip/xc32/v4.21/bin/bin/../../lib/gcc/pic32c/8.3.1/../../../../pic32c/lib/thumb/v7e-m+fp/hard\libc-musl.a(__int_vfprintf.o)
                0x00006b50                __vfprintf

.text.ADC0_Enable%291
                0x00006b6c       0x18
 .text.ADC0_Enable
                0x00006b6c       0x18 build/default/production/_ext/60163342/plib_adc0.o
                0x00006b6c                ADC0_Enable

.text.ADC0_ConversionStart%292
                0x00006b84       0x18
 .text.ADC0_ConversionStart
                0x00006b84       0x18 build/default/production/_ext/60163342/plib_adc0.o
                0x00006b84                ADC0_ConversionStart

.text.TC0_CompareStart%293
                0x00006b9c       0x18
 .text.TC0_CompareStart
                0x00006b9c       0x18 build/default/production/_ext/829342655/plib_tc0.o
                0x00006b9c                TC0_CompareStart

.text.TC0_CompareStop%294
                0x00006bb4       0x18
 .text.TC0_CompareStop
                0x00006bb4       0x18 build/default/production/_ext/829342655/plib_tc0.o
                0x00006bb4                TC0_CompareStop

.text.TC1_CompareStart%295
                0x00006bcc       0x18
 .text.TC1_CompareStart
                0x00006bcc       0x18 build/default/production/_ext/829342655/plib_tc1.o
                0x00006bcc                TC1_CompareStart

.text.TC1_CompareStop%296
                0x00006be4       0x18
 .text.TC1_CompareStop
                0x00006be4       0x18 build/default/production/_ext/829342655/plib_tc1.o
                0x00006be4                TC1_CompareStop

.text.TC5_CompareStart%297
                0x00006bfc       0x18
 .text.TC5_CompareStart
                0x00006bfc       0x18 build/default/production/_ext/829342655/plib_tc5.o
                0x00006bfc                TC5_CompareStart

.text.TC5_CompareStop%298
                0x00006c14       0x18
 .text.TC5_CompareStop
                0x00006c14       0x18 build/default/production/_ext/829342655/plib_tc5.o
                0x00006c14                TC5_CompareStop

.text.TCC4_PWMStart%299
                0x00006c2c       0x18
 .text.TCC4_PWMStart
                0x00006c2c       0x18 build/default/production/_ext/60181570/plib_tcc4.o
                0x00006c2c                TCC4_PWMStart

.text.TCC4_PWMStop%300
                0x00006c44       0x18
 .text.TCC4_PWMStop
                0x00006c44       0x18 build/default/production/_ext/60181570/plib_tcc4.o
                0x00006c44                TCC4_PWMStop

.text.vTaskInternalSetTimeOutState%301
                0x00006c5c       0x18
 .text.vTaskInternalSetTimeOutState
                0x00006c5c       0x18 build/default/production/_ext/404212886/FreeRTOS_tasks.o
                0x00006c5c                vTaskInternalSetTimeOutState

.text.__towrite%302
                0x00006c74       0x18
 .text.__towrite
                0x00006c74       0x18 c:/program files/microchip/xc32/v4.21/bin/bin/../../lib/gcc/pic32c/8.3.1/../../../../pic32c/lib/thumb/v7e-m+fp/hard\libc-musl.a(__towrite.o)
                0x00006c74                __towrite

.text.__fwrite%303
                0x00006c8c       0x18
 .text.__fwrite
                0x00006c8c       0x18 c:/program files/microchip/xc32/v4.21/bin/bin/../../lib/gcc/pic32c/8.3.1/../../../../pic32c/lib/thumb/v7e-m+fp/hard\libc-musl.a(__fwrite.o)
                0x00006c8c                __fwrite
                0x00006c8c                __fwrite_needed

.text.vListInitialise%304
                0x00006ca4       0x16
 .text.vListInitialise
                0x00006ca4       0x16 build/default/production/_ext/404212886/list.o
                0x00006ca4                vListInitialise

.text.vListInsertEnd%305
                0x00006cba       0x16
 .text.vListInsertEnd
                0x00006cba       0x16 build/default/production/_ext/404212886/list.o
                0x00006cba                vListInsertEnd

.text.prvIsQueueEmpty%306
                0x00006cd0       0x16
 .text.prvIsQueueEmpty
                0x00006cd0       0x16 build/default/production/_ext/404212886/queue.o

.text.__expand_heap%307
                0x00006ce6       0x16
 .text.__expand_heap
                0x00006ce6       0x16 c:/program files/microchip/xc32/v4.21/bin/bin/../../lib/gcc/pic32c/8.3.1/../../../../pic32c/lib/thumb/v7e-m+fp/hard\libc-musl.a(expand_heap.o)
                0x00006ce6                __expand_heap

.text.vPortEnableVFP%308
                0x00006cfc       0x14
 .text.vPortEnableVFP
                0x00006cfc       0x14 build/default/production/_ext/246609638/port.o

.text.vPortExitCritical%309
                0x00006d10       0x14
 .text.vPortExitCritical
                0x00006d10       0x14 build/default/production/_ext/246609638/port.o
                0x00006d10                vPortExitCritical

.text.__init_stdout%310
                0x00006d24       0x14
 .text.__init_stdout
                0x00006d24       0x14 c:/program files/microchip/xc32/v4.21/bin/bin/../../lib/gcc/pic32c/8.3.1/../../../../pic32c/lib/thumb/v7e-m+fp/hard\libc-musl.a(stdout.o)
                0x00006d24                __init_stdout

.text.vApplicationStackOverflowHook%311
                0x00006d38       0x12
 .text.vApplicationStackOverflowHook
                0x00006d38       0x12 build/default/production/_ext/1171490990/freertos_hooks.o
                0x00006d38                vApplicationStackOverflowHook

.text.vApplicationMallocFailedHook%312
                0x00006d4a       0x12
 .text.vApplicationMallocFailedHook
                0x00006d4a       0x12 build/default/production/_ext/1171490990/freertos_hooks.o
                0x00006d4a                vApplicationMallocFailedHook

.text.memcpy%313
                0x00006d5c       0x12
 .text.memcpy   0x00006d5c       0x12 c:/program files/microchip/xc32/v4.21/bin/bin/../../lib/gcc/pic32c/8.3.1/../../../../pic32c/lib/thumb/v7e-m+fp/hard\libc-musl.a(memcpy.o)
                0x00006d5c                memcpy

.text.stpcpy%314
                0x00006d6e       0x12
 .text.stpcpy   0x00006d6e       0x12 c:/program files/microchip/xc32/v4.21/bin/bin/../../lib/gcc/pic32c/8.3.1/../../../../pic32c/lib/thumb/v7e-m+fp/hard\libc-musl.a(stpcpy.o)
                0x00006d6e                __stpcpy
                0x00006d6e                stpcpy

.text.NVMCTRL_Initialize%315
                0x00006d80       0x10
 .text.NVMCTRL_Initialize
                0x00006d80       0x10 build/default/production/_ext/1593096446/plib_nvmctrl.o
                0x00006d80                NVMCTRL_Initialize

.text.vTaskSuspendAll%316
                0x00006d90       0x10
 .text.vTaskSuspendAll
                0x00006d90       0x10 build/default/production/_ext/404212886/FreeRTOS_tasks.o
                0x00006d90                vTaskSuspendAll

.text.ESP_CALLBACK%317
                0x00006da0       0x10
 .text.ESP_CALLBACK
                0x00006da0       0x10 build/default/production/_ext/1360937237/main.o
                0x00006da0                ESP_CALLBACK

.text.AC_DC_METER_CALLBACK%318
                0x00006db0       0x10
 .text.AC_DC_METER_CALLBACK
                0x00006db0       0x10 build/default/production/_ext/1360937237/main.o
                0x00006db0                AC_DC_METER_CALLBACK

.text.RFID_CALLBACK%319
                0x00006dc0       0x10
 .text.RFID_CALLBACK
                0x00006dc0       0x10 build/default/production/_ext/1360937237/main.o
                0x00006dc0                RFID_CALLBACK

.text.HMI_CALLBACK%320
                0x00006dd0       0x10
 .text.HMI_CALLBACK
                0x00006dd0       0x10 build/default/production/_ext/1360937237/main.o
                0x00006dd0                HMI_CALLBACK

.text.SERCOM1_USART_TransmitComplete%321
                0x00006de0       0x10
 .text.SERCOM1_USART_TransmitComplete
                0x00006de0       0x10 build/default/production/_ext/504274921/plib_sercom1_usart.o
                0x00006de0                SERCOM1_USART_TransmitComplete

.rodata%322     0x00006df0       0x10
 .rodata        0x00006df0       0x10 c:/program files/microchip/xc32/v4.21/bin/bin/../../lib/gcc/pic32c/8.3.1/../../../../pic32c/lib/thumb/v7e-m+fp/hard\libc-musl.a(__fmt_fp.o)

.text.setbuf%323
                0x00006e00       0x10
 .text.setbuf   0x00006e00       0x10 c:/program files/microchip/xc32/v4.21/bin/bin/../../lib/gcc/pic32c/8.3.1/../../../../pic32c/lib/thumb/v7e-m+fp/hard\libc-musl.a(setbuf.o)
                0x00006e00                setbuf

.text.memset%324
                0x00006e10       0x10
 .text.memset   0x00006e10       0x10 c:/program files/microchip/xc32/v4.21/bin/bin/../../lib/gcc/pic32c/8.3.1/../../../../pic32c/lib/thumb/v7e-m+fp/hard\libc-musl.a(memset.o)
                0x00006e10                memset

.text.strlen%325
                0x00006e20       0x10
 .text.strlen   0x00006e20       0x10 c:/program files/microchip/xc32/v4.21/bin/bin/../../lib/gcc/pic32c/8.3.1/../../../../pic32c/lib/thumb/v7e-m+fp/hard\libc-musl.a(strlen.o)
                0x00006e20                strlen

.text.__init_stdio%326
                0x00006e30       0x10
 .text.__init_stdio
                0x00006e30       0x10 c:/program files/microchip/xc32/v4.21/bin/bin/../../lib/gcc/pic32c/8.3.1/../../../../pic32c/lib/thumb/v7e-m+fp/hard\libc-musl.a(__init_stdio.o)
                0x00006e30                __init_stdio_needed
                0x00006e30                __init_stdio

.text.tolower%327
                0x00006e40        0xe
 .text.tolower  0x00006e40        0xe c:/program files/microchip/xc32/v4.21/bin/bin/../../lib/gcc/pic32c/8.3.1/../../../../pic32c/lib/thumb/v7e-m+fp/hard\libc-musl.a(tolower.o)
                0x00006e40                tolower

.text.toupper%328
                0x00006e4e        0xe
 .text.toupper  0x00006e4e        0xe c:/program files/microchip/xc32/v4.21/bin/bin/../../lib/gcc/pic32c/8.3.1/../../../../pic32c/lib/thumb/v7e-m+fp/hard\libc-musl.a(toupper.o)
                0x00006e4e                toupper

.text.ADC0_ConversionResultGet%329
                0x00004dd4        0xc
 .text.ADC0_ConversionResultGet
                0x00004dd4        0xc build/default/production/_ext/60163342/plib_adc0.o
                0x00004dd4                ADC0_ConversionResultGet

.text.SERCOM7_USART_ReadCallbackRegister%330
                0x00006854        0xc
 .text.SERCOM7_USART_ReadCallbackRegister
                0x00006854        0xc build/default/production/_ext/504274921/plib_sercom7_usart.o
                0x00006854                SERCOM7_USART_ReadCallbackRegister

.text.SERCOM6_USART_ReadCallbackRegister%331
                0x00006e5c        0xc
 .text.SERCOM6_USART_ReadCallbackRegister
                0x00006e5c        0xc build/default/production/_ext/504274921/plib_sercom6_usart.o
                0x00006e5c                SERCOM6_USART_ReadCallbackRegister

.text.SERCOM2_USART_ReadCallbackRegister%332
                0x00006e68        0xc
 .text.SERCOM2_USART_ReadCallbackRegister
                0x00006e68        0xc build/default/production/_ext/504274921/plib_sercom2_usart.o
                0x00006e68                SERCOM2_USART_ReadCallbackRegister

.text.xTaskGetTickCount%333
                0x00006e74        0xc
 .text.xTaskGetTickCount
                0x00006e74        0xc build/default/production/_ext/404212886/FreeRTOS_tasks.o
                0x00006e74                xTaskGetTickCount

.text.uxTaskGetNumberOfTasks%334
                0x00006e80        0xc
 .text.uxTaskGetNumberOfTasks
                0x00006e80        0xc build/default/production/_ext/404212886/FreeRTOS_tasks.o
                0x00006e80                uxTaskGetNumberOfTasks

.text.vTaskMissedYield%335
                0x00006e8c        0xc
 .text.vTaskMissedYield
                0x00006e8c        0xc build/default/production/_ext/404212886/FreeRTOS_tasks.o
                0x00006e8c                vTaskMissedYield

.text.MainsCallback%336
                0x00006e98        0xc
 .text.MainsCallback
                0x00006e98        0xc build/default/production/_ext/1360937237/main.o
                0x00006e98                MainsCallback

.text.StartAC_DC_METER_RECEIVETask%337
                0x00006ea4        0xc
 .text.StartAC_DC_METER_RECEIVETask
                0x00006ea4        0xc build/default/production/_ext/1360937237/main.o
                0x00006ea4                StartAC_DC_METER_RECEIVETask

.text.StartTEMP_HUMITask%338
                0x00006eb0        0xc
 .text.StartTEMP_HUMITask
                0x00006eb0        0xc build/default/production/_ext/1360937237/main.o
                0x00006eb0                StartTEMP_HUMITask

.text.StartGUN_TEMPTask%339
                0x00006ebc        0xc
 .text.StartGUN_TEMPTask
                0x00006ebc        0xc build/default/production/_ext/1360937237/main.o
                0x00006ebc                StartGUN_TEMPTask

.text.SERCOM1_USART_ReadCallbackRegister%340
                0x00006ec8        0xc
 .text.SERCOM1_USART_ReadCallbackRegister
                0x00006ec8        0xc build/default/production/_ext/504274921/plib_sercom1_usart.o
                0x00006ec8                SERCOM1_USART_ReadCallbackRegister

.text.strcpy%341
                0x00006ed4        0xc
 .text.strcpy   0x00006ed4        0xc c:/program files/microchip/xc32/v4.21/bin/bin/../../lib/gcc/pic32c/8.3.1/../../../../pic32c/lib/thumb/v7e-m+fp/hard\libc-musl.a(strcpy.o)
                0x00006ed4                strcpy

.rodata%342     0x00006ee0       0x10
 .rodata        0x00006ee0        0x8 build/default/production/_ext/404212886/timers.o
 .rodata        0x00006ee8        0x8 build/default/production/_ext/404212886/FreeRTOS_tasks.o

.text.__aeabi_dsub%344
                0x00006ef0        0x8
 .text.__aeabi_dsub
                0x00006ef0        0x8 c:/program files/microchip/xc32/v4.21/bin/bin/../../lib/gcc/pic32c/8.3.1/../../../../pic32c/lib/thumb/v7e-m+fp/hard\libm-emfloat.a(__aeabi_dsub.o)
                0x00006ef0                __aeabi_dsub

.text.putc%345  0x00006ef8        0x8
 .text.putc     0x00006ef8        0x8 c:/program files/microchip/xc32/v4.21/bin/bin/../../lib/gcc/pic32c/8.3.1/../../../../pic32c/lib/thumb/v7e-m+fp/hard\libc-musl.a(putc.o)
                0x00006ef8                putc
                0x00006ef8                fputc
                0x00006ef8                _IO_putc
                0x00006ef8                putc_unlocked

.text.__get_stdout%346
                0x00006f00        0x8
 .text.__get_stdout
                0x00006f00        0x8 c:/program files/microchip/xc32/v4.21/bin/bin/../../lib/gcc/pic32c/8.3.1/../../../../pic32c/lib/thumb/v7e-m+fp/hard\libc-musl.a(__stdout.o)
                0x00006f00                __get_stdout
                0x00006f00                __init_stdout_needed

.rodata%347     0x00006f08        0x7
 .rodata        0x00006f08        0x7 c:/program files/microchip/xc32/v4.21/bin/bin/../../lib/gcc/pic32c/8.3.1/../../../../pic32c/lib/thumb/v7e-m+fp/hard\libc-musl.a(__fmt_s.o)

.text.vListInitialiseItem%348
                0x00006f10        0x6
 .text.vListInitialiseItem
                0x00006f10        0x6 build/default/production/_ext/404212886/list.o
                0x00006f10                vListInitialiseItem

.text.__fwrite_min%349
                0x00006f16        0x6
 .text.__fwrite_min
                0x00006f16        0x6 c:/program files/microchip/xc32/v4.21/bin/bin/../../lib/gcc/pic32c/8.3.1/../../../../pic32c/lib/thumb/v7e-m+fp/hard\libc-musl.a(__out.o)
                0x00006f16                __stdio_write_unbuffered
                0x00006f16                __stdio_write

.text.close%350
                0x00006f1c        0x6
 .text.close    0x00006f1c        0x6 c:/program files/microchip/xc32/v4.21/bin/bin/../../lib/gcc/pic32c/8.3.1/../../../../pic32c/lib/thumb/v7e-m+fp/hard\libpic32c.a(close.o)
                0x00006f1c                close

.text.__pic32c_data_initialization%351
                0x000038b4        0x4
 .text.__pic32c_data_initialization
                0x000038b4        0x4 c:/program files/microchip/xc32/v4.21/bin/bin/../../lib/gcc/pic32c/8.3.1/../../../../pic32c/lib/thumb/v7e-m+fp/hard\libpic32c.a(data_init_wrapper.o)
                0x000038b4                __pic32c_data_initialization

.text.__dummy_fmt4%352
                0x00003984        0x4
 .text.__dummy_fmt4
                0x00003984        0x4 c:/program files/microchip/xc32/v4.21/bin/bin/../../lib/gcc/pic32c/8.3.1/../../../../pic32c/lib/thumb/v7e-m+fp/hard\libc-musl.a(__printf_core.o)
                0x00003984                __fmt_a

.text.__dummy%353
                0x00003e3c        0x4
 .text.__dummy  0x00003e3c        0x4 c:/program files/microchip/xc32/v4.21/bin/bin/../../lib/gcc/pic32c/8.3.1/../../../../pic32c/lib/thumb/v7e-m+fp/hard\libc-musl.a(stdin.o)
                0x00003e3c                __stdio_seek_rw

.text%354       0x00006f24        0x4
 .text          0x00006f24        0x4 c:/program files/microchip/xc32/v4.21/bin/bin/../../lib/gcc/pic32c/8.3.1/thumb/v7e-m+fp/hard\libgcc.a(_dvmd_tls.o)
                0x00006f24                __aeabi_idiv0
                0x00006f24                __aeabi_ldiv0

.text.lseek%355
                0x00006f28        0x4
 .text.lseek    0x00006f28        0x4 c:/program files/microchip/xc32/v4.21/bin/bin/../../lib/gcc/pic32c/8.3.1/../../../../pic32c/lib/thumb/v7e-m+fp/hard\libpic32c.a(lseek.o)
                0x00006f28                lseek

.text.EVSYS_Initialize%356
                0x0000321a        0x2
 .text.EVSYS_Initialize
                0x0000321a        0x2 build/default/production/_ext/1986646378/plib_evsys.o
                0x0000321a                EVSYS_Initialize

.text.Dummy_App_Func%357
                0x000043ce        0x2
 .text.Dummy_App_Func
                0x000043ce        0x2 build/default/production/_ext/1171490990/startup_xc32.o
                0x000043ce                _on_reset
                0x000043ce                _on_bootstrap
                0x000043ce                __xc32_on_reset
                0x000043ce                Dummy_App_Func
                0x000043ce                __xc32_on_bootstrap

.text.Dummy_Handler%358
                0x0000464e        0x2
 .text.Dummy_Handler
                0x0000464e        0x2 build/default/production/_ext/1171490990/interrupts.o
                0x0000464e                TCC0_MC5_Handler
                0x0000464e                SERCOM0_2_Handler
                0x0000464e                USB_SOF_HSOF_Handler
                0x0000464e                TCC4_OTHER_Handler
                0x0000464e                TCC2_MC2_Handler
                0x0000464e                EVSYS_0_Handler
                0x0000464e                TRNG_Handler
                0x0000464e                TC2_Handler
                0x0000464e                USB_TRCPT0_Handler
                0x0000464e                DAC_OTHER_Handler
                0x0000464e                AC_Handler
                0x0000464e                DAC_EMPTY_0_Handler
                0x0000464e                DMAC_OTHER_Handler
                0x0000464e                SERCOM4_OTHER_Handler
                0x0000464e                TC7_Handler
                0x0000464e                TCC4_MC0_Handler
                0x0000464e                EVSYS_3_Handler
                0x0000464e                QSPI_Handler
                0x0000464e                TCC2_MC0_Handler
                0x0000464e                PDEC_OTHER_Handler
                0x0000464e                TCC3_MC0_Handler
                0x0000464e                PDEC_MC1_Handler
                0x0000464e                TCC2_MC1_Handler
                0x0000464e                OSCCTRL_XOSC1_Handler
                0x0000464e                PDEC_MC0_Handler
                0x0000464e                EIC_EXTINT_4_Handler
                0x0000464e                SERCOM0_OTHER_Handler
                0x0000464e                EVSYS_OTHER_Handler
                0x0000464e                SERCOM0_0_Handler
                0x0000464e                RTC_Handler
                0x0000464e                SERCOM4_0_Handler
                0x0000464e                TCC1_MC0_Handler
                0x0000464e                TCC2_OTHER_Handler
                0x0000464e                SUPC_BODDET_Handler
                0x0000464e                EIC_EXTINT_14_Handler
                0x0000464e                OSC32KCTRL_Handler
                0x0000464e                EVSYS_1_Handler
                0x0000464e                TC6_Handler
                0x0000464e                TCC4_MC1_Handler
                0x0000464e                DMAC_0_Handler
                0x0000464e                SUPC_OTHER_Handler
                0x0000464e                WDT_Handler
                0x0000464e                CAN0_Handler
                0x0000464e                EIC_EXTINT_15_Handler
                0x0000464e                TCC3_MC1_Handler
                0x0000464e                SERCOM5_0_Handler
                0x0000464e                TC4_Handler
                0x0000464e                TC1_Handler
                0x0000464e                TCC1_MC1_Handler
                0x0000464e                EIC_EXTINT_0_Handler
                0x0000464e                TCC1_OTHER_Handler
                0x0000464e                PAC_Handler
                0x0000464e                SERCOM4_1_Handler
                0x0000464e                TC3_Handler
                0x0000464e                Dummy_Handler
                0x0000464e                DAC_RESRDY_0_Handler
                0x0000464e                SERCOM5_1_Handler
                0x0000464e                DMAC_2_Handler
                0x0000464e                TCC0_MC4_Handler
                0x0000464e                USB_TRCPT1_Handler
                0x0000464e                SERCOM0_1_Handler
                0x0000464e                TCC0_MC3_Handler
                0x0000464e                EIC_EXTINT_12_Handler
                0x0000464e                OSCCTRL_DPLL0_Handler
                0x0000464e                SERCOM5_OTHER_Handler
                0x0000464e                PM_Handler
                0x0000464e                OSCCTRL_DFLL_Handler
                0x0000464e                DAC_RESRDY_1_Handler
                0x0000464e                DMAC_1_Handler
                0x0000464e                USB_OTHER_Handler
                0x0000464e                CAN1_Handler
                0x0000464e                TCC0_OTHER_Handler
                0x0000464e                TCC1_MC3_Handler
                0x0000464e                OSCCTRL_XOSC0_Handler
                0x0000464e                TCC0_MC0_Handler
                0x0000464e                SDHC0_Handler
                0x0000464e                I2S_Handler
                0x0000464e                PCC_Handler
                0x0000464e                TCC3_OTHER_Handler
                0x0000464e                EIC_EXTINT_13_Handler
                0x0000464e                PUKCC_Handler
                0x0000464e                SERCOM4_2_Handler
                0x0000464e                TCC1_MC2_Handler
                0x0000464e                ADC1_RESRDY_Handler
                0x0000464e                NVMCTRL_1_Handler
                0x0000464e                SERCOM5_2_Handler
                0x0000464e                DAC_EMPTY_1_Handler
                0x0000464e                ADC1_OTHER_Handler
                0x0000464e                OSCCTRL_DPLL1_Handler
                0x0000464e                EIC_EXTINT_3_Handler
                0x0000464e                NVMCTRL_0_Handler
                0x0000464e                ADC0_RESRDY_Handler
                0x0000464e                ADC0_OTHER_Handler
                0x0000464e                MCLK_Handler
                0x0000464e                EVSYS_2_Handler
                0x0000464e                FREQM_Handler
                0x0000464e                TC0_Handler
                0x0000464e                TCC0_MC1_Handler
                0x0000464e                DMAC_3_Handler
                0x0000464e                RAMECC_Handler
                0x0000464e                TC5_Handler
                0x0000464e                AES_Handler
                0x0000464e                ICM_Handler
                0x0000464e                TCC0_MC2_Handler

.text.NonMaskableInt_Handler%359
                0x00004aee        0x2
 .text.NonMaskableInt_Handler
                0x00004aee        0x2 build/default/production/_ext/1171490990/exceptions.o
                0x00004aee                NonMaskableInt_Handler

.text.HardFault_Handler%360
                0x000054aa        0x2
 .text.HardFault_Handler
                0x000054aa        0x2 build/default/production/_ext/1171490990/exceptions.o
                0x000054aa                HardFault_Handler

.text.DebugMonitor_Handler%361
                0x00005e2e        0x2
 .text.DebugMonitor_Handler
                0x00005e2e        0x2 build/default/production/_ext/1171490990/exceptions.o
                0x00005e2e                DebugMonitor_Handler

.text.MemoryManagement_Handler%362
                0x00005f1e        0x2
 .text.MemoryManagement_Handler
                0x00005f1e        0x2 build/default/production/_ext/1171490990/exceptions.o
                0x00005f1e                MemoryManagement_Handler

.text.BusFault_Handler%363
                0x0000631e        0x2
 .text.BusFault_Handler
                0x0000631e        0x2 build/default/production/_ext/1171490990/exceptions.o
                0x0000631e                BusFault_Handler

.text.UsageFault_Handler%364
                0x0000652e        0x2
 .text.UsageFault_Handler
                0x0000652e        0x2 build/default/production/_ext/1171490990/exceptions.o
                0x0000652e                UsageFault_Handler

.text.__dummy%365
                0x0000679e        0x2
 .text.__dummy  0x0000679e        0x2 c:/program files/microchip/xc32/v4.21/bin/bin/../../lib/gcc/pic32c/8.3.1/../../../../pic32c/lib/thumb/v7e-m+fp/hard\libc-musl.a(__libc_start_main.o)
                0x0000679e                __init_host

.text.__dummy%366
                0x0000695a        0x2
 .text.__dummy  0x0000695a        0x2 c:/program files/microchip/xc32/v4.21/bin/bin/../../lib/gcc/pic32c/8.3.1/../../../../pic32c/lib/thumb/v7e-m+fp/hard\libc-musl.a(__init_stdio.o)
                0x0000695a                __init_stdin
                0x0000695a                __init_stderr

.text.__dummy%367
                0x00006b16        0x2
 .text.__dummy  0x00006b16        0x2 c:/program files/microchip/xc32/v4.21/bin/bin/../../lib/gcc/pic32c/8.3.1/../../../../pic32c/lib/thumb/v7e-m+fp/hard\libc-musl.a(__stderr.o)
                0x00006b16                __stdio_seek
